---
triple:          'arm64-apple-darwin'
binary-path:     dktreemain_main
relocations:
  - { offsetInCU: 0x7F09, offset: 0x7F09, size: 0x8, addend: 0x0, symName: __ZNSt3__111__sift_downB8ue170006INS_17_ClassicAlgPolicyERNS_6__lessIvvEEPmEEvT1_OT0_NS_15iterator_traitsIS6_E15difference_typeES6_, symObjAddr: 0x11674, symBinAddr: 0x100015658, symSize: 0x20C }
  - { offsetInCU: 0x7FB6, offset: 0x7FB6, size: 0x8, addend: 0x0, symName: __ZNSt3__117__floyd_sift_downB8ue170006INS_17_ClassicAlgPolicyERNS_6__lessIvvEEPmEET1_S6_OT0_NS_15iterator_traitsIS6_E15difference_typeE, symObjAddr: 0x11AB0, symBinAddr: 0x100015A94, symSize: 0x100 }
  - { offsetInCU: 0x804E, offset: 0x804E, size: 0x8, addend: 0x0, symName: __ZNSt3__124__put_character_sequenceB8ue170006IcNS_11char_traitsIcEEEERNS_13basic_ostreamIT_T0_EES7_PKS4_m, symObjAddr: 0x12038, symBinAddr: 0x10001601C, symSize: 0x1F4 }
  - { offsetInCU: 0xB895, offset: 0xB895, size: 0x8, addend: 0x0, symName: __ZNSt3__1neB8ue170006IP5NesboEEbRKNS_11__wrap_iterIT_EES7_, symObjAddr: 0x1278, symBinAddr: 0x10000525C, symSize: 0x34 }
  - { offsetInCU: 0xB8F4, offset: 0xB8F4, size: 0x8, addend: 0x0, symName: __ZNSt3__14sortB8ue170006INS_11__wrap_iterIPmEEEEvT_S4_, symObjAddr: 0x85F4, symBinAddr: 0x10000C5D8, symSize: 0x3C }
  - { offsetInCU: 0xC27D, offset: 0xC27D, size: 0x8, addend: 0x0, symName: __ZNSt3__1lsB8ue170006INS_11char_traitsIcEEEERNS_13basic_ostreamIcT_EES6_PKc, symObjAddr: 0x8770, symBinAddr: 0x10000C754, symSize: 0x48 }
  - { offsetInCU: 0xC2CE, offset: 0xC2CE, size: 0x8, addend: 0x0, symName: __ZNSt3__14endlB8ue170006IcNS_11char_traitsIcEEEERNS_13basic_ostreamIT_T0_EES7_, symObjAddr: 0x9C48, symBinAddr: 0x10000DC2C, symSize: 0x58 }
  - { offsetInCU: 0xC30E, offset: 0xC30E, size: 0x8, addend: 0x0, symName: __ZNSt3__1lsB8ue170006IcNS_11char_traitsIcEENS_9allocatorIcEEEERNS_13basic_ostreamIT_T0_EES9_RKNS_12basic_stringIS6_S7_T1_EE, symObjAddr: 0xA210, symBinAddr: 0x10000E1F4, symSize: 0x4C }
  - { offsetInCU: 0xC366, offset: 0xC366, size: 0x8, addend: 0x0, symName: __ZNSt3__1neB8ue170006IPmEEbRKNS_11__wrap_iterIT_EES6_, symObjAddr: 0xA25C, symBinAddr: 0x10000E240, symSize: 0x34 }
  - { offsetInCU: 0xC3A9, offset: 0xC3A9, size: 0x8, addend: 0x0, symName: __ZNSt3__16uniqueB8ue170006INS_11__wrap_iterIPmEEEET_S4_S4_, symObjAddr: 0xA398, symBinAddr: 0x10000E37C, symSize: 0x44 }
  - { offsetInCU: 0xC3EC, offset: 0xC3EC, size: 0x8, addend: 0x0, symName: __ZNSt3__112__to_addressB8ue170006I5NesboEEPT_S3_, symObjAddr: 0xACA4, symBinAddr: 0x10000EC88, symSize: 0x14 }
  - { offsetInCU: 0xC421, offset: 0xC421, size: 0x8, addend: 0x0, symName: __ZNSt3__13maxB8ue170006ImEERKT_S3_S3_, symObjAddr: 0xB4F8, symBinAddr: 0x10000F4DC, symSize: 0x2C }
  - { offsetInCU: 0xC464, offset: 0xC464, size: 0x8, addend: 0x0, symName: __ZNSt3__13minB8ue170006ImEERKT_S3_S3_, symObjAddr: 0xB524, symBinAddr: 0x10000F508, symSize: 0x2C }
  - { offsetInCU: 0xC6A8, offset: 0xC6A8, size: 0x8, addend: 0x0, symName: __ZNSt3__13minB8ue170006ImNS_6__lessIvvEEEERKT_S5_S5_T0_, symObjAddr: 0xB5B0, symBinAddr: 0x10000F594, symSize: 0x54 }
  - { offsetInCU: 0xC747, offset: 0xC747, size: 0x8, addend: 0x0, symName: __ZNSt3__120__throw_length_errorB8ue170006EPKc, symObjAddr: 0xB690, symBinAddr: 0x10000F674, symSize: 0x64 }
  - { offsetInCU: 0xC771, offset: 0xC771, size: 0x8, addend: 0x0, symName: __ZNSt3__13maxB8ue170006ImNS_6__lessIvvEEEERKT_S5_S5_T0_, symObjAddr: 0xB774, symBinAddr: 0x10000F758, symSize: 0x54 }
  - { offsetInCU: 0xC7CB, offset: 0xC7CB, size: 0x8, addend: 0x0, symName: __ZNSt3__119__allocate_at_leastB8ue170006INS_9allocatorI5NesboEEEENS_19__allocation_resultINS_16allocator_traitsIT_E7pointerEEERS6_m, symObjAddr: 0xB8E4, symBinAddr: 0x10000F8C8, symSize: 0x40 }
  - { offsetInCU: 0xC80E, offset: 0xC80E, size: 0x8, addend: 0x0, symName: __ZNSt3__130__libcpp_is_constant_evaluatedB8ue170006Ev, symObjAddr: 0xBAB8, symBinAddr: 0x10000FA9C, symSize: 0xC }
  - { offsetInCU: 0xC82B, offset: 0xC82B, size: 0x8, addend: 0x0, symName: __ZNSt3__117__libcpp_allocateB8ue170006Emm, symObjAddr: 0xBAC4, symBinAddr: 0x10000FAA8, symSize: 0x28 }
  - { offsetInCU: 0xC868, offset: 0xC868, size: 0x8, addend: 0x0, symName: __ZNSt3__121__libcpp_operator_newB8ue170006IJmEEEPvDpT_, symObjAddr: 0xBAEC, symBinAddr: 0x10000FAD0, symSize: 0x24 }
  - { offsetInCU: 0xC8A1, offset: 0xC8A1, size: 0x8, addend: 0x0, symName: __ZNSt3__142__uninitialized_allocator_move_if_noexceptB8ue170006INS_9allocatorI5NesboEENS_16reverse_iteratorIPS2_EES6_S2_vEET1_RT_T0_SA_S7_, symObjAddr: 0xBC48, symBinAddr: 0x10000FC2C, symSize: 0xE8 }
  - { offsetInCU: 0xC91E, offset: 0xC91E, size: 0x8, addend: 0x0, symName: __ZNSt3__14swapB8ue170006IP5NesboEEvRT_S4_, symObjAddr: 0xBD7C, symBinAddr: 0x10000FD60, symSize: 0x3C }
  - { offsetInCU: 0xC96F, offset: 0xC96F, size: 0x8, addend: 0x0, symName: __ZNSt3__1neB8ue170006IP5NesboS2_EEbRKNS_16reverse_iteratorIT_EERKNS3_IT0_EE, symObjAddr: 0xBE80, symBinAddr: 0x10000FE64, symSize: 0x48 }
  - { offsetInCU: 0xC9E0, offset: 0xC9E0, size: 0x8, addend: 0x0, symName: __ZNSt3__114__construct_atB8ue170006I5NesboJS1_EPS1_EEPT_S4_DpOT0_, symObjAddr: 0xBEC8, symBinAddr: 0x10000FEAC, symSize: 0x40 }
  - { offsetInCU: 0xCA50, offset: 0xCA50, size: 0x8, addend: 0x0, symName: __ZNSt3__112__to_addressB8ue170006INS_16reverse_iteratorIP5NesboEEvEEu7__decayIDTclsr19__to_address_helperIT_EE6__callclsr3stdE7declvalIRKS5_EEEEES7_, symObjAddr: 0xBF08, symBinAddr: 0x10000FEEC, symSize: 0x24 }
  - { offsetInCU: 0xCA86, offset: 0xCA86, size: 0x8, addend: 0x0, symName: __ZNSt3__14moveB8ue170006INS_16reverse_iteratorIP5NesboEES4_EET0_T_S6_S5_, symObjAddr: 0xBF74, symBinAddr: 0x10000FF58, symSize: 0x78 }
  - { offsetInCU: 0xCB09, offset: 0xCB09, size: 0x8, addend: 0x0, symName: __ZNSt3__16__moveB8ue170006INS_17_ClassicAlgPolicyENS_16reverse_iteratorIP5NesboEES5_S5_EENS_4pairIT0_T2_EES7_T1_S8_, symObjAddr: 0xC05C, symBinAddr: 0x100010040, symSize: 0x64 }
  - { offsetInCU: 0xCB75, offset: 0xCB75, size: 0x8, addend: 0x0, symName: __ZNSt3__123__dispatch_copy_or_moveB8ue170006INS_17_ClassicAlgPolicyENS_11__move_loopIS1_EENS_14__move_trivialENS_16reverse_iteratorIP5NesboEES8_S8_EENS_4pairIT2_T4_EESA_T3_SB_, symObjAddr: 0xC0C0, symBinAddr: 0x1000100A4, symSize: 0x64 }
  - { offsetInCU: 0xCBF3, offset: 0xCBF3, size: 0x8, addend: 0x0, symName: __ZNSt3__121__unwrap_and_dispatchB8ue170006INS_10__overloadINS_11__move_loopINS_17_ClassicAlgPolicyEEENS_14__move_trivialEEENS_16reverse_iteratorIP5NesboEESA_SA_Li0EEENS_4pairIT0_T2_EESC_T1_SD_, symObjAddr: 0xC124, symBinAddr: 0x100010108, symSize: 0x12C }
  - { offsetInCU: 0xCC83, offset: 0xCC83, size: 0x8, addend: 0x0, symName: __ZNSt3__114__unwrap_rangeB8ue170006INS_16reverse_iteratorIP5NesboEES4_EENS_4pairIT0_S6_EET_S8_, symObjAddr: 0xC250, symBinAddr: 0x100010234, symSize: 0x84 }
  - { offsetInCU: 0xCE55, offset: 0xCE55, size: 0x8, addend: 0x0, symName: __ZNSt3__113__unwrap_iterB8ue170006INS_16reverse_iteratorIP5NesboEENS_18__unwrap_iter_implIS4_Lb0EEELi0EEEDTclsrT0_8__unwrapclsr3stdE7declvalIT_EEEES8_, symObjAddr: 0xC370, symBinAddr: 0x100010354, symSize: 0x44 }
  - { offsetInCU: 0xCE99, offset: 0xCE99, size: 0x8, addend: 0x0, symName: __ZNSt3__19make_pairB8ue170006INS_16reverse_iteratorIP5NesboEES4_EENS_4pairINS_18__unwrap_ref_decayIT_E4typeENS6_IT0_E4typeEEEOS7_OSA_, symObjAddr: 0xC3B4, symBinAddr: 0x100010398, symSize: 0x38 }
  - { offsetInCU: 0xCEE8, offset: 0xCEE8, size: 0x8, addend: 0x0, symName: __ZNSt3__114__rewrap_rangeB8ue170006INS_16reverse_iteratorIP5NesboEES4_EET_S5_T0_, symObjAddr: 0xC3EC, symBinAddr: 0x1000103D0, symSize: 0x5C }
  - { offsetInCU: 0xCF34, offset: 0xCF34, size: 0x8, addend: 0x0, symName: __ZNSt3__113__rewrap_iterB8ue170006INS_16reverse_iteratorIP5NesboEES4_NS_18__unwrap_iter_implIS4_Lb0EEEEET_S7_T0_, symObjAddr: 0xC448, symBinAddr: 0x10001042C, symSize: 0x88 }
  - { offsetInCU: 0xD152, offset: 0xD152, size: 0x8, addend: 0x0, symName: __ZNSt3__119__libcpp_deallocateB8ue170006EPvmm, symObjAddr: 0xC834, symBinAddr: 0x100010818, symSize: 0x30 }
  - { offsetInCU: 0xD19A, offset: 0xD19A, size: 0x8, addend: 0x0, symName: __ZNSt3__127__do_deallocate_handle_sizeB8ue170006IJEEEvPvmDpT_, symObjAddr: 0xC864, symBinAddr: 0x100010848, symSize: 0x28 }
  - { offsetInCU: 0xD1D8, offset: 0xD1D8, size: 0x8, addend: 0x0, symName: __ZNSt3__124__libcpp_operator_deleteB8ue170006IJPvEEEvDpT_, symObjAddr: 0xC88C, symBinAddr: 0x100010870, symSize: 0x24 }
  - { offsetInCU: 0xD20D, offset: 0xD20D, size: 0x8, addend: 0x0, symName: __ZNSt3__1eqB8ue170006IP5NesboEEbRKNS_11__wrap_iterIT_EES7_, symObjAddr: 0xC980, symBinAddr: 0x100010964, symSize: 0x48 }
  - { offsetInCU: 0xD250, offset: 0xD250, size: 0x8, addend: 0x0, symName: __ZNSt3__112__to_addressB8ue170006I6LNesboEEPT_S3_, symObjAddr: 0xCBD4, symBinAddr: 0x100010BB8, symSize: 0x14 }
  - { offsetInCU: 0xD285, offset: 0xD285, size: 0x8, addend: 0x0, symName: __ZNSt3__119__allocate_at_leastB8ue170006INS_9allocatorI6LNesboEEEENS_19__allocation_resultINS_16allocator_traitsIT_E7pointerEEERS6_m, symObjAddr: 0xD590, symBinAddr: 0x100011574, symSize: 0x40 }
  - { offsetInCU: 0xD2C8, offset: 0xD2C8, size: 0x8, addend: 0x0, symName: __ZNSt3__142__uninitialized_allocator_move_if_noexceptB8ue170006INS_9allocatorI6LNesboEENS_16reverse_iteratorIPS2_EES6_S2_vEET1_RT_T0_SA_S7_, symObjAddr: 0xD844, symBinAddr: 0x100011828, symSize: 0xE8 }
  - { offsetInCU: 0xD345, offset: 0xD345, size: 0x8, addend: 0x0, symName: __ZNSt3__14swapB8ue170006IP6LNesboEEvRT_S4_, symObjAddr: 0xD978, symBinAddr: 0x10001195C, symSize: 0x3C }
  - { offsetInCU: 0xD396, offset: 0xD396, size: 0x8, addend: 0x0, symName: __ZNSt3__1neB8ue170006IP6LNesboS2_EEbRKNS_16reverse_iteratorIT_EERKNS3_IT0_EE, symObjAddr: 0xDA60, symBinAddr: 0x100011A44, symSize: 0x48 }
  - { offsetInCU: 0xD407, offset: 0xD407, size: 0x8, addend: 0x0, symName: __ZNSt3__114__construct_atB8ue170006I6LNesboJS1_EPS1_EEPT_S4_DpOT0_, symObjAddr: 0xDAA8, symBinAddr: 0x100011A8C, symSize: 0x34 }
  - { offsetInCU: 0xD477, offset: 0xD477, size: 0x8, addend: 0x0, symName: __ZNSt3__112__to_addressB8ue170006INS_16reverse_iteratorIP6LNesboEEvEEu7__decayIDTclsr19__to_address_helperIT_EE6__callclsr3stdE7declvalIRKS5_EEEEES7_, symObjAddr: 0xDADC, symBinAddr: 0x100011AC0, symSize: 0x24 }
  - { offsetInCU: 0xD4AD, offset: 0xD4AD, size: 0x8, addend: 0x0, symName: __ZNSt3__14moveB8ue170006INS_16reverse_iteratorIP6LNesboEES4_EET0_T_S6_S5_, symObjAddr: 0xDB48, symBinAddr: 0x100011B2C, symSize: 0x78 }
  - { offsetInCU: 0xD530, offset: 0xD530, size: 0x8, addend: 0x0, symName: __ZNSt3__16__moveB8ue170006INS_17_ClassicAlgPolicyENS_16reverse_iteratorIP6LNesboEES5_S5_EENS_4pairIT0_T2_EES7_T1_S8_, symObjAddr: 0xDC30, symBinAddr: 0x100011C14, symSize: 0x64 }
  - { offsetInCU: 0xD59C, offset: 0xD59C, size: 0x8, addend: 0x0, symName: __ZNSt3__123__dispatch_copy_or_moveB8ue170006INS_17_ClassicAlgPolicyENS_11__move_loopIS1_EENS_14__move_trivialENS_16reverse_iteratorIP6LNesboEES8_S8_EENS_4pairIT2_T4_EESA_T3_SB_, symObjAddr: 0xDC94, symBinAddr: 0x100011C78, symSize: 0x64 }
  - { offsetInCU: 0xD61A, offset: 0xD61A, size: 0x8, addend: 0x0, symName: __ZNSt3__121__unwrap_and_dispatchB8ue170006INS_10__overloadINS_11__move_loopINS_17_ClassicAlgPolicyEEENS_14__move_trivialEEENS_16reverse_iteratorIP6LNesboEESA_SA_Li0EEENS_4pairIT0_T2_EESC_T1_SD_, symObjAddr: 0xDCF8, symBinAddr: 0x100011CDC, symSize: 0x12C }
  - { offsetInCU: 0xD6AA, offset: 0xD6AA, size: 0x8, addend: 0x0, symName: __ZNSt3__114__unwrap_rangeB8ue170006INS_16reverse_iteratorIP6LNesboEES4_EENS_4pairIT0_S6_EET_S8_, symObjAddr: 0xDE24, symBinAddr: 0x100011E08, symSize: 0x84 }
  - { offsetInCU: 0xD7A3, offset: 0xD7A3, size: 0x8, addend: 0x0, symName: __ZNSt3__113__unwrap_iterB8ue170006INS_16reverse_iteratorIP6LNesboEENS_18__unwrap_iter_implIS4_Lb0EEELi0EEEDTclsrT0_8__unwrapclsr3stdE7declvalIT_EEEES8_, symObjAddr: 0xDF50, symBinAddr: 0x100011F34, symSize: 0x44 }
  - { offsetInCU: 0xD7E7, offset: 0xD7E7, size: 0x8, addend: 0x0, symName: __ZNSt3__19make_pairB8ue170006INS_16reverse_iteratorIP6LNesboEES4_EENS_4pairINS_18__unwrap_ref_decayIT_E4typeENS6_IT0_E4typeEEEOS7_OSA_, symObjAddr: 0xDF94, symBinAddr: 0x100011F78, symSize: 0x38 }
  - { offsetInCU: 0xD836, offset: 0xD836, size: 0x8, addend: 0x0, symName: __ZNSt3__114__rewrap_rangeB8ue170006INS_16reverse_iteratorIP6LNesboEES4_EET_S5_T0_, symObjAddr: 0xDFCC, symBinAddr: 0x100011FB0, symSize: 0x5C }
  - { offsetInCU: 0xD882, offset: 0xD882, size: 0x8, addend: 0x0, symName: __ZNSt3__113__rewrap_iterB8ue170006INS_16reverse_iteratorIP6LNesboEES4_NS_18__unwrap_iter_implIS4_Lb0EEEEET_S7_T0_, symObjAddr: 0xE028, symBinAddr: 0x10001200C, symSize: 0x88 }
  - { offsetInCU: 0xD943, offset: 0xD943, size: 0x8, addend: 0x0, symName: __ZNSt3__112__to_addressB8ue170006ImEEPT_S2_, symObjAddr: 0xEDF4, symBinAddr: 0x100012DD8, symSize: 0x14 }
  - { offsetInCU: 0xD978, offset: 0xD978, size: 0x8, addend: 0x0, symName: __ZNSt3__118__constexpr_strlenB8ue170006EPKc, symObjAddr: 0xF104, symBinAddr: 0x1000130E8, symSize: 0x24 }
  - { offsetInCU: 0xD9A4, offset: 0xD9A4, size: 0x8, addend: 0x0, symName: __ZNSt3__1miB8ue170006IPKmS2_EENS_11__wrap_iterIT_E15difference_typeERKS5_RKNS3_IT0_EE, symObjAddr: 0xF1AC, symBinAddr: 0x100013190, symSize: 0x48 }
  - { offsetInCU: 0xD9F0, offset: 0xD9F0, size: 0x8, addend: 0x0, symName: __ZNSt3__14moveB8ue170006IPmS1_EET0_T_S3_S2_, symObjAddr: 0xF26C, symBinAddr: 0x100013250, symSize: 0x40 }
  - { offsetInCU: 0xDA4A, offset: 0xDA4A, size: 0x8, addend: 0x0, symName: __ZNSt3__16__moveB8ue170006INS_17_ClassicAlgPolicyEPmS2_S2_EENS_4pairIT0_T2_EES4_T1_S5_, symObjAddr: 0xF42C, symBinAddr: 0x100013410, symSize: 0x44 }
  - { offsetInCU: 0xDAB6, offset: 0xDAB6, size: 0x8, addend: 0x0, symName: __ZNSt3__123__dispatch_copy_or_moveB8ue170006INS_17_ClassicAlgPolicyENS_11__move_loopIS1_EENS_14__move_trivialEPmS5_S5_EENS_4pairIT2_T4_EES7_T3_S8_, symObjAddr: 0xF470, symBinAddr: 0x100013454, symSize: 0x44 }
  - { offsetInCU: 0xDB34, offset: 0xDB34, size: 0x8, addend: 0x0, symName: __ZNSt3__121__unwrap_and_dispatchB8ue170006INS_10__overloadINS_11__move_loopINS_17_ClassicAlgPolicyEEENS_14__move_trivialEEEPmS7_S7_Li0EEENS_4pairIT0_T2_EES9_T1_SA_, symObjAddr: 0xF4B4, symBinAddr: 0x100013498, symSize: 0xB4 }
  - { offsetInCU: 0xDBC2, offset: 0xDBC2, size: 0x8, addend: 0x0, symName: __ZNSt3__114__unwrap_rangeB8ue170006IPmS1_EENS_4pairIT0_S3_EET_S5_, symObjAddr: 0xF568, symBinAddr: 0x10001354C, symSize: 0x60 }
  - { offsetInCU: 0xDD01, offset: 0xDD01, size: 0x8, addend: 0x0, symName: __ZNSt3__113__unwrap_iterB8ue170006IPmNS_18__unwrap_iter_implIS1_Lb1EEELi0EEEDTclsrT0_8__unwrapclsr3stdE7declvalIT_EEEES5_, symObjAddr: 0xF610, symBinAddr: 0x1000135F4, symSize: 0x24 }
  - { offsetInCU: 0xDD45, offset: 0xDD45, size: 0x8, addend: 0x0, symName: __ZNSt3__19make_pairB8ue170006IPmS1_EENS_4pairINS_18__unwrap_ref_decayIT_E4typeENS3_IT0_E4typeEEEOS4_OS7_, symObjAddr: 0xF634, symBinAddr: 0x100013618, symSize: 0x38 }
  - { offsetInCU: 0xDD94, offset: 0xDD94, size: 0x8, addend: 0x0, symName: __ZNSt3__114__rewrap_rangeB8ue170006IPmS1_EET_S2_T0_, symObjAddr: 0xF66C, symBinAddr: 0x100013650, symSize: 0x2C }
  - { offsetInCU: 0xDDE0, offset: 0xDDE0, size: 0x8, addend: 0x0, symName: __ZNSt3__113__rewrap_iterB8ue170006IPmS1_NS_18__unwrap_iter_implIS1_Lb1EEEEET_S4_T0_, symObjAddr: 0xF698, symBinAddr: 0x10001367C, symSize: 0x50 }
  - { offsetInCU: 0xDE35, offset: 0xDE35, size: 0x8, addend: 0x0, symName: __ZNSt3__119__copy_trivial_implB8ue170006ImmEENS_4pairIPT_PT0_EES3_S3_S5_, symObjAddr: 0xF6E8, symBinAddr: 0x1000136CC, symSize: 0x80 }
  - { offsetInCU: 0xDE9D, offset: 0xDE9D, size: 0x8, addend: 0x0, symName: __ZNSt3__119__constexpr_memmoveB8ue170006ImmLi0EEEPT_S2_PT0_NS_15__element_countE, symObjAddr: 0xF768, symBinAddr: 0x10001374C, symSize: 0xA0 }
  - { offsetInCU: 0xDF0B, offset: 0xDF0B, size: 0x8, addend: 0x0, symName: __ZNSt3__19make_pairB8ue170006IRPmS1_EENS_4pairINS_18__unwrap_ref_decayIT_E4typeENS4_IT0_E4typeEEEOS5_OS8_, symObjAddr: 0xF808, symBinAddr: 0x1000137EC, symSize: 0x38 }
  - { offsetInCU: 0xDFAD, offset: 0xDFAD, size: 0x8, addend: 0x0, symName: __ZNSt3__122__make_exception_guardB8ue170006INS_6vectorImNS_9allocatorImEEE16__destroy_vectorEEENS_28__exception_guard_exceptionsIT_EES7_, symObjAddr: 0xFA60, symBinAddr: 0x100013A44, symSize: 0x40 }
  - { offsetInCU: 0xDFE2, offset: 0xDFE2, size: 0x8, addend: 0x0, symName: __ZNSt3__119__allocate_at_leastB8ue170006INS_9allocatorImEEEENS_19__allocation_resultINS_16allocator_traitsIT_E7pointerEEERS5_m, symObjAddr: 0xFD54, symBinAddr: 0x100013D38, symSize: 0x40 }
  - { offsetInCU: 0xE025, offset: 0xE025, size: 0x8, addend: 0x0, symName: __ZNSt3__142__uninitialized_allocator_move_if_noexceptB8ue170006INS_9allocatorImEENS_16reverse_iteratorIPmEES5_mvEET1_RT_T0_S9_S6_, symObjAddr: 0x10704, symBinAddr: 0x1000146E8, symSize: 0xE8 }
  - { offsetInCU: 0xE0A2, offset: 0xE0A2, size: 0x8, addend: 0x0, symName: __ZNSt3__14swapB8ue170006IPmEEvRT_S3_, symObjAddr: 0x10838, symBinAddr: 0x10001481C, symSize: 0x3C }
  - { offsetInCU: 0xE0F3, offset: 0xE0F3, size: 0x8, addend: 0x0, symName: __ZNSt3__1neB8ue170006IPmS1_EEbRKNS_16reverse_iteratorIT_EERKNS2_IT0_EE, symObjAddr: 0x10874, symBinAddr: 0x100014858, symSize: 0x48 }
  - { offsetInCU: 0xE164, offset: 0xE164, size: 0x8, addend: 0x0, symName: __ZNSt3__114__construct_atB8ue170006ImJmEPmEEPT_S3_DpOT0_, symObjAddr: 0x108BC, symBinAddr: 0x1000148A0, symSize: 0x2C }
  - { offsetInCU: 0xE1D4, offset: 0xE1D4, size: 0x8, addend: 0x0, symName: __ZNSt3__112__to_addressB8ue170006INS_16reverse_iteratorIPmEEvEEu7__decayIDTclsr19__to_address_helperIT_EE6__callclsr3stdE7declvalIRKS4_EEEEES6_, symObjAddr: 0x108E8, symBinAddr: 0x1000148CC, symSize: 0x24 }
  - { offsetInCU: 0xE20A, offset: 0xE20A, size: 0x8, addend: 0x0, symName: __ZNSt3__14moveB8ue170006INS_16reverse_iteratorIPmEES3_EET0_T_S5_S4_, symObjAddr: 0x10954, symBinAddr: 0x100014938, symSize: 0x78 }
  - { offsetInCU: 0xE28D, offset: 0xE28D, size: 0x8, addend: 0x0, symName: __ZNSt3__16__moveB8ue170006INS_17_ClassicAlgPolicyENS_16reverse_iteratorIPmEES4_S4_EENS_4pairIT0_T2_EES6_T1_S7_, symObjAddr: 0x10A3C, symBinAddr: 0x100014A20, symSize: 0x64 }
  - { offsetInCU: 0xE2F9, offset: 0xE2F9, size: 0x8, addend: 0x0, symName: __ZNSt3__123__dispatch_copy_or_moveB8ue170006INS_17_ClassicAlgPolicyENS_11__move_loopIS1_EENS_14__move_trivialENS_16reverse_iteratorIPmEES7_S7_EENS_4pairIT2_T4_EES9_T3_SA_, symObjAddr: 0x10AA0, symBinAddr: 0x100014A84, symSize: 0x64 }
  - { offsetInCU: 0xE377, offset: 0xE377, size: 0x8, addend: 0x0, symName: __ZNSt3__121__unwrap_and_dispatchB8ue170006INS_10__overloadINS_11__move_loopINS_17_ClassicAlgPolicyEEENS_14__move_trivialEEENS_16reverse_iteratorIPmEES9_S9_Li0EEENS_4pairIT0_T2_EESB_T1_SC_, symObjAddr: 0x10B04, symBinAddr: 0x100014AE8, symSize: 0x12C }
  - { offsetInCU: 0xE407, offset: 0xE407, size: 0x8, addend: 0x0, symName: __ZNSt3__114__unwrap_rangeB8ue170006INS_16reverse_iteratorIPmEES3_EENS_4pairIT0_S5_EET_S7_, symObjAddr: 0x10C30, symBinAddr: 0x100014C14, symSize: 0x84 }
  - { offsetInCU: 0xE500, offset: 0xE500, size: 0x8, addend: 0x0, symName: __ZNSt3__113__unwrap_iterB8ue170006INS_16reverse_iteratorIPmEENS_18__unwrap_iter_implIS3_Lb0EEELi0EEEDTclsrT0_8__unwrapclsr3stdE7declvalIT_EEEES7_, symObjAddr: 0x10D54, symBinAddr: 0x100014D38, symSize: 0x44 }
  - { offsetInCU: 0xE544, offset: 0xE544, size: 0x8, addend: 0x0, symName: __ZNSt3__19make_pairB8ue170006INS_16reverse_iteratorIPmEES3_EENS_4pairINS_18__unwrap_ref_decayIT_E4typeENS5_IT0_E4typeEEEOS6_OS9_, symObjAddr: 0x10D98, symBinAddr: 0x100014D7C, symSize: 0x38 }
  - { offsetInCU: 0xE593, offset: 0xE593, size: 0x8, addend: 0x0, symName: __ZNSt3__114__rewrap_rangeB8ue170006INS_16reverse_iteratorIPmEES3_EET_S4_T0_, symObjAddr: 0x10DD0, symBinAddr: 0x100014DB4, symSize: 0x5C }
  - { offsetInCU: 0xE5DF, offset: 0xE5DF, size: 0x8, addend: 0x0, symName: __ZNSt3__113__rewrap_iterB8ue170006INS_16reverse_iteratorIPmEES3_NS_18__unwrap_iter_implIS3_Lb0EEEEET_S6_T0_, symObjAddr: 0x10E2C, symBinAddr: 0x100014E10, symSize: 0x88 }
  - { offsetInCU: 0xE6A0, offset: 0xE6A0, size: 0x8, addend: 0x0, symName: __ZNSt3__14sortB8ue170006INS_11__wrap_iterIPmEENS_6__lessIvvEEEEvT_S6_T0_, symObjAddr: 0x111E4, symBinAddr: 0x1000151C8, symSize: 0x40 }
  - { offsetInCU: 0xE6FA, offset: 0xE6FA, size: 0x8, addend: 0x0, symName: __ZNSt3__111__sort_implB8ue170006INS_17_ClassicAlgPolicyENS_11__wrap_iterIPmEENS_6__lessIvvEEEEvT0_S7_RT1_, symObjAddr: 0x11224, symBinAddr: 0x100015208, symSize: 0x108 }
  - { offsetInCU: 0xE75D, offset: 0xE75D, size: 0x8, addend: 0x0, symName: __ZNSt3__123__debug_randomize_rangeB8ue170006INS_17_ClassicAlgPolicyENS_11__wrap_iterIPmEES4_EEvT0_T1_, symObjAddr: 0x1132C, symBinAddr: 0x100015310, symSize: 0x14 }
  - { offsetInCU: 0xE7AE, offset: 0xE7AE, size: 0x8, addend: 0x0, symName: __ZNSt3__114__partial_sortB8ue170006INS_17_ClassicAlgPolicyENS_6__lessIvvEEPmS4_EET1_S5_S5_T2_RT0_, symObjAddr: 0x11340, symBinAddr: 0x100015324, symSize: 0x94 }
  - { offsetInCU: 0xE836, offset: 0xE836, size: 0x8, addend: 0x0, symName: __ZNSt3__113__unwrap_iterB8ue170006INS_11__wrap_iterIPmEENS_18__unwrap_iter_implIS3_Lb1EEELi0EEEDTclsrT0_8__unwrapclsr3stdE7declvalIT_EEEES7_, symObjAddr: 0x113D4, symBinAddr: 0x1000153B8, symSize: 0x2C }
  - { offsetInCU: 0xE87A, offset: 0xE87A, size: 0x8, addend: 0x0, symName: __ZNSt3__115__sort_dispatchB8ue170006INS_17_ClassicAlgPolicyEmLi0EEEvPT0_S3_RNS_6__lessIvvEE, symObjAddr: 0x11400, symBinAddr: 0x1000153E4, symSize: 0x34 }
  - { offsetInCU: 0xE8E5, offset: 0xE8E5, size: 0x8, addend: 0x0, symName: __ZNSt3__135__check_strict_weak_ordering_sortedB8ue170006IPmNS_6__lessIvvEEEEvT_S4_RT0_, symObjAddr: 0x11434, symBinAddr: 0x100015418, symSize: 0x18 }
  - { offsetInCU: 0xE93B, offset: 0xE93B, size: 0x8, addend: 0x0, symName: __ZNSt3__123__debug_randomize_rangeB8ue170006INS_17_ClassicAlgPolicyEPmS2_EEvT0_T1_, symObjAddr: 0x11464, symBinAddr: 0x100015448, symSize: 0x14 }
  - { offsetInCU: 0xE98C, offset: 0xE98C, size: 0x8, addend: 0x0, symName: __ZNSt3__119__partial_sort_implB8ue170006INS_17_ClassicAlgPolicyERNS_6__lessIvvEEPmS5_EET1_S6_S6_T2_OT0_, symObjAddr: 0x11478, symBinAddr: 0x10001545C, symSize: 0x110 }
  - { offsetInCU: 0xEA22, offset: 0xEA22, size: 0x8, addend: 0x0, symName: __ZNSt3__111__make_heapB8ue170006INS_17_ClassicAlgPolicyERNS_6__lessIvvEEPmEEvT1_S6_OT0_, symObjAddr: 0x11588, symBinAddr: 0x10001556C, symSize: 0xB8 }
  - { offsetInCU: 0xEAC4, offset: 0xEAC4, size: 0x8, addend: 0x0, symName: __ZNSt3__111__sort_heapB8ue170006INS_17_ClassicAlgPolicyERNS_6__lessIvvEEPmEEvT1_S6_OT0_, symObjAddr: 0x11880, symBinAddr: 0x100015864, symSize: 0xA8 }
  - { offsetInCU: 0xEB66, offset: 0xEB66, size: 0x8, addend: 0x0, symName: __ZNSt3__19iter_swapB8ue170006IPmS1_EEvT_T0_, symObjAddr: 0x11928, symBinAddr: 0x10001590C, symSize: 0x2C }
  - { offsetInCU: 0xEBAE, offset: 0xEBAE, size: 0x8, addend: 0x0, symName: __ZNSt3__14swapB8ue170006ImEEvRT_S2_, symObjAddr: 0x11954, symBinAddr: 0x100015938, symSize: 0x3C }
  - { offsetInCU: 0xEBFF, offset: 0xEBFF, size: 0x8, addend: 0x0, symName: __ZNSt3__110__pop_heapB8ue170006INS_17_ClassicAlgPolicyENS_6__lessIvvEEPmEEvT1_S5_RT0_NS_15iterator_traitsIS5_E15difference_typeE, symObjAddr: 0x119BC, symBinAddr: 0x1000159A0, symSize: 0xF4 }
  - { offsetInCU: 0xECAF, offset: 0xECAF, size: 0x8, addend: 0x0, symName: __ZNSt3__19__sift_upB8ue170006INS_17_ClassicAlgPolicyERNS_6__lessIvvEEPmEEvT1_S6_OT0_NS_15iterator_traitsIS6_E15difference_typeE, symObjAddr: 0x11BB0, symBinAddr: 0x100015B94, symSize: 0x11C }
  - { offsetInCU: 0xEDB2, offset: 0xEDB2, size: 0x8, addend: 0x0, symName: __ZNSt3__112__to_addressB8ue170006INS_11__wrap_iterIPmEEvEEu7__decayIDTclsr19__to_address_helperIT_EE6__callclsr3stdE7declvalIRKS4_EEEEES6_, symObjAddr: 0x11CF4, symBinAddr: 0x100015CD8, symSize: 0x24 }
  - { offsetInCU: 0xEE8D, offset: 0xEE8D, size: 0x8, addend: 0x0, symName: __ZNSt3__116__pad_and_outputB8ue170006IcNS_11char_traitsIcEEEENS_19ostreambuf_iteratorIT_T0_EES6_PKS4_S8_S8_RNS_8ios_baseES4_, symObjAddr: 0x12248, symBinAddr: 0x10001622C, symSize: 0x248 }
  - { offsetInCU: 0xEF5C, offset: 0xEF5C, size: 0x8, addend: 0x0, symName: __ZNSt3__112__to_addressB8ue170006IKcEEPT_S3_, symObjAddr: 0x126C0, symBinAddr: 0x1000166A4, symSize: 0x14 }
  - { offsetInCU: 0xEFC4, offset: 0xEFC4, size: 0x8, addend: 0x0, symName: __ZNSt3__19use_facetB8ue170006INS_5ctypeIcEEEERKT_RKNS_6localeE, symObjAddr: 0x12990, symBinAddr: 0x100016974, symSize: 0x2C }
  - { offsetInCU: 0xF491, offset: 0xF491, size: 0x8, addend: 0x0, symName: __ZNSt3__130__uninitialized_allocator_copyB8ue170006INS_9allocatorImEEPmS3_S3_EET2_RT_T0_T1_S4_, symObjAddr: 0x12CB8, symBinAddr: 0x100016C9C, symSize: 0x80 }
  - { offsetInCU: 0xF52E, offset: 0xF52E, size: 0x8, addend: 0x0, symName: __ZNSt3__135__uninitialized_allocator_copy_implB8ue170006INS_9allocatorImEEPmS3_S3_EET2_RT_T0_T1_S4_, symObjAddr: 0x12D38, symBinAddr: 0x100016D1C, symSize: 0xFC }
  - { offsetInCU: 0xF5CC, offset: 0xF5CC, size: 0x8, addend: 0x0, symName: __ZNSt3__122__make_exception_guardB8ue170006INS_29_AllocatorDestroyRangeReverseINS_9allocatorImEEPmEEEENS_28__exception_guard_exceptionsIT_EES7_, symObjAddr: 0x12E34, symBinAddr: 0x100016E18, symSize: 0x4C }
  - { offsetInCU: 0xF602, offset: 0xF602, size: 0x8, addend: 0x0, symName: __ZNSt3__119__allocator_destroyB8ue170006INS_9allocatorImEENS_16reverse_iteratorIPmEES5_EEvRT_T0_T1_, symObjAddr: 0x130B4, symBinAddr: 0x100017098, symSize: 0x70 }
  - { offsetInCU: 0xF665, offset: 0xF665, size: 0x8, addend: 0x0, symName: __ZNSt3__112__to_addressB8ue170006INS_4pairImmEEEEPT_S4_, symObjAddr: 0x135D4, symBinAddr: 0x1000175B8, symSize: 0x14 }
  - { offsetInCU: 0xF69A, offset: 0xF69A, size: 0x8, addend: 0x0, symName: __ZNSt3__119__allocate_at_leastB8ue170006INS_9allocatorINS_4pairImmEEEEEENS_19__allocation_resultINS_16allocator_traitsIT_E7pointerEEERS7_m, symObjAddr: 0x13F14, symBinAddr: 0x100017EF8, symSize: 0x40 }
  - { offsetInCU: 0xF6DD, offset: 0xF6DD, size: 0x8, addend: 0x0, symName: __ZNSt3__142__uninitialized_allocator_move_if_noexceptB8ue170006INS_9allocatorINS_4pairImmEEEENS_16reverse_iteratorIPS3_EES7_S7_EET2_RT_T0_T1_S8_, symObjAddr: 0x140F4, symBinAddr: 0x1000180D8, symSize: 0x134 }
  - { offsetInCU: 0xF77D, offset: 0xF77D, size: 0x8, addend: 0x0, symName: __ZNSt3__14swapB8ue170006IPNS_4pairImmEEEEvRT_S5_, symObjAddr: 0x14274, symBinAddr: 0x100018258, symSize: 0x3C }
  - { offsetInCU: 0xF7CE, offset: 0xF7CE, size: 0x8, addend: 0x0, symName: __ZNSt3__122__make_exception_guardB8ue170006INS_29_AllocatorDestroyRangeReverseINS_9allocatorINS_4pairImmEEEENS_16reverse_iteratorIPS4_EEEEEENS_28__exception_guard_exceptionsIT_EESB_, symObjAddr: 0x1435C, symBinAddr: 0x100018340, symSize: 0x4C }
  - { offsetInCU: 0xF804, offset: 0xF804, size: 0x8, addend: 0x0, symName: __ZNSt3__1neB8ue170006IPNS_4pairImmEES3_EEbRKNS_16reverse_iteratorIT_EERKNS4_IT0_EE, symObjAddr: 0x143EC, symBinAddr: 0x1000183D0, symSize: 0x48 }
  - { offsetInCU: 0xF850, offset: 0xF850, size: 0x8, addend: 0x0, symName: __ZNSt3__112__to_addressB8ue170006INS_16reverse_iteratorIPNS_4pairImmEEEEvEEu7__decayIDTclsr19__to_address_helperIT_EE6__callclsr3stdE7declvalIRKS6_EEEEES8_, symObjAddr: 0x14468, symBinAddr: 0x10001844C, symSize: 0x24 }
  - { offsetInCU: 0xF8AF, offset: 0xF8AF, size: 0x8, addend: 0x0, symName: __ZNSt3__119__allocator_destroyB8ue170006INS_9allocatorINS_4pairImmEEEENS_16reverse_iteratorINS5_IPS3_EEEES8_EEvRT_T0_T1_, symObjAddr: 0x1474C, symBinAddr: 0x100018730, symSize: 0x70 }
  - { offsetInCU: 0xF914, offset: 0xF914, size: 0x8, addend: 0x0, symName: __ZNSt3__1neB8ue170006INS_16reverse_iteratorIPNS_4pairImmEEEES5_EEbRKNS1_IT_EERKNS1_IT0_EE, symObjAddr: 0x147F8, symBinAddr: 0x1000187DC, symSize: 0x60 }
  - { offsetInCU: 0xF960, offset: 0xF960, size: 0x8, addend: 0x0, symName: __ZNSt3__112__to_addressB8ue170006INS_16reverse_iteratorINS1_IPNS_4pairImmEEEEEEvEEu7__decayIDTclsr19__to_address_helperIT_EE6__callclsr3stdE7declvalIRKS7_EEEEES9_, symObjAddr: 0x14858, symBinAddr: 0x10001883C, symSize: 0x24 }
  - { offsetInCU: 0xF9BF, offset: 0xF9BF, size: 0x8, addend: 0x0, symName: __ZNSt3__1eqB8ue170006IPmEEbRKNS_11__wrap_iterIT_EES6_, symObjAddr: 0x150A0, symBinAddr: 0x100019084, symSize: 0x48 }
  - { offsetInCU: 0xFA02, offset: 0xFA02, size: 0x8, addend: 0x0, symName: __ZNSt3__16uniqueB8ue170006INS_11__wrap_iterIPmEENS_10__equal_toEEET_S5_S5_T0_, symObjAddr: 0x150E8, symBinAddr: 0x1000190CC, symSize: 0x54 }
  - { offsetInCU: 0xFA5C, offset: 0xFA5C, size: 0x8, addend: 0x0, symName: __ZNSt3__18__uniqueB8ue170006INS_17_ClassicAlgPolicyENS_11__wrap_iterIPmEES4_RNS_10__equal_toEEENS_4pairIT0_S8_EES8_T1_OT2_, symObjAddr: 0x1513C, symBinAddr: 0x100019120, symSize: 0x140 }
  - { offsetInCU: 0xFAE4, offset: 0xFAE4, size: 0x8, addend: 0x0, symName: __ZNSt3__115__adjacent_findB8ue170006INS_11__wrap_iterIPmEES3_RNS_10__equal_toEEET_S6_T0_OT1_, symObjAddr: 0x1527C, symBinAddr: 0x100019260, symSize: 0xCC }
  - { offsetInCU: 0xFC3D, offset: 0xFC3D, size: 0x8, addend: 0x0, symName: __ZNSt3__1miB8ue170006IPKmPmEENS_11__wrap_iterIT_E15difference_typeERKS6_RKNS4_IT0_EE, symObjAddr: 0x15418, symBinAddr: 0x1000193FC, symSize: 0x48 }
  - { offsetInCU: 0xFC89, offset: 0xFC89, size: 0x8, addend: 0x0, symName: __ZNSt3__1neB8ue170006IPKmEEbRKNS_11__wrap_iterIT_EES7_, symObjAddr: 0x15460, symBinAddr: 0x100019444, symSize: 0x34 }
  - { offsetInCU: 0xFCCC, offset: 0xFCCC, size: 0x8, addend: 0x0, symName: __ZNSt3__1eqB8ue170006IPKmEEbRKNS_11__wrap_iterIT_EES7_, symObjAddr: 0x15494, symBinAddr: 0x100019478, symSize: 0x48 }
  - { offsetInCU: 0x1013A, offset: 0x1013A, size: 0x8, addend: 0x0, symName: __ZSt28__throw_bad_array_new_lengthB8ue170006v, symObjAddr: 0xBA84, symBinAddr: 0x10000FA68, symSize: 0x34 }
  - { offsetInCU: 0x11706, offset: 0x11706, size: 0x8, addend: 0x0, symName: __ZNSt3__16vectorI5NesboNS_9allocatorIS1_EEE26__swap_out_circular_bufferERNS_14__split_bufferIS1_RS3_EE, symObjAddr: 0xB32C, symBinAddr: 0x10000F310, symSize: 0x110 }
  - { offsetInCU: 0x1175D, offset: 0x1175D, size: 0x8, addend: 0x0, symName: __ZNSt3__16vectorI6LNesboNS_9allocatorIS1_EEE26__swap_out_circular_bufferERNS_14__split_bufferIS1_RS3_EE, symObjAddr: 0xD21C, symBinAddr: 0x100011200, symSize: 0x110 }
  - { offsetInCU: 0x11971, offset: 0x11971, size: 0x8, addend: 0x0, symName: __ZNSt3__16vectorImNS_9allocatorImEEE26__swap_out_circular_bufferERNS_14__split_bufferImRS2_EE, symObjAddr: 0x1039C, symBinAddr: 0x100014380, symSize: 0x110 }
  - { offsetInCU: 0x11C67, offset: 0x11C67, size: 0x8, addend: 0x0, symName: __ZNSt3__16vectorINS_4pairImmEENS_9allocatorIS2_EEE26__swap_out_circular_bufferERNS_14__split_bufferIS2_RS4_EE, symObjAddr: 0x13BA0, symBinAddr: 0x100017B84, symSize: 0x110 }
  - { offsetInCU: 0x1402B, offset: 0x1402B, size: 0x8, addend: 0x0, symName: __ZN5TTree4NodeC2Ev, symObjAddr: 0x0, symBinAddr: 0x100003FE4, symSize: 0x70 }
  - { offsetInCU: 0x14057, offset: 0x14057, size: 0x8, addend: 0x0, symName: __ZN8LeafNodeC1Em, symObjAddr: 0x70, symBinAddr: 0x100004054, symSize: 0x34 }
  - { offsetInCU: 0x14093, offset: 0x14093, size: 0x8, addend: 0x0, symName: __ZN5TTree4NodeC1Ev, symObjAddr: 0xA4, symBinAddr: 0x100004088, symSize: 0x2C }
  - { offsetInCU: 0x140BF, offset: 0x140BF, size: 0x8, addend: 0x0, symName: __ZN5TTree4NodeC2EPS_S1_, symObjAddr: 0xD0, symBinAddr: 0x1000040B4, symSize: 0x88 }
  - { offsetInCU: 0x14107, offset: 0x14107, size: 0x8, addend: 0x0, symName: __ZN12InternalNodeC1EP5TTreeS1_S1_, symObjAddr: 0x158, symBinAddr: 0x10000413C, symSize: 0x44 }
  - { offsetInCU: 0x1415D, offset: 0x1415D, size: 0x8, addend: 0x0, symName: __ZN5TTree4NodeC1EPS_S1_, symObjAddr: 0x19C, symBinAddr: 0x100004180, symSize: 0x3C }
  - { offsetInCU: 0x141A5, offset: 0x141A5, size: 0x8, addend: 0x0, symName: __ZN5TTree4NodeC2E9BitVector, symObjAddr: 0x1D8, symBinAddr: 0x1000041BC, symSize: 0x94 }
  - { offsetInCU: 0x141E0, offset: 0x141E0, size: 0x8, addend: 0x0, symName: __ZN8LeafNodeC1E9BitVector, symObjAddr: 0x26C, symBinAddr: 0x100004250, symSize: 0x34 }
  - { offsetInCU: 0x1421D, offset: 0x1421D, size: 0x8, addend: 0x0, symName: __ZN5TTree4NodeC1E9BitVector, symObjAddr: 0x2A0, symBinAddr: 0x100004284, symSize: 0x34 }
  - { offsetInCU: 0x14258, offset: 0x14258, size: 0x8, addend: 0x0, symName: __ZN5TTree4NodeC2Em, symObjAddr: 0x2D4, symBinAddr: 0x1000042B8, symSize: 0x74 }
  - { offsetInCU: 0x14292, offset: 0x14292, size: 0x8, addend: 0x0, symName: __ZN5TTree4NodeC1Em, symObjAddr: 0x348, symBinAddr: 0x10000432C, symSize: 0x34 }
  - { offsetInCU: 0x142CC, offset: 0x142CC, size: 0x8, addend: 0x0, symName: __ZN12InternalNodeC2Ev, symObjAddr: 0x37C, symBinAddr: 0x100004360, symSize: 0xD8 }
  - { offsetInCU: 0x14314, offset: 0x14314, size: 0x8, addend: 0x0, symName: __ZN12InternalNode5EntryC1Ev, symObjAddr: 0x454, symBinAddr: 0x100004438, symSize: 0x2C }
  - { offsetInCU: 0x1433E, offset: 0x1433E, size: 0x8, addend: 0x0, symName: __ZN12InternalNodeC1Ev, symObjAddr: 0x480, symBinAddr: 0x100004464, symSize: 0x2C }
  - { offsetInCU: 0x1436A, offset: 0x1436A, size: 0x8, addend: 0x0, symName: __ZN12InternalNodeC2EP5TTreeS1_S1_, symObjAddr: 0x4AC, symBinAddr: 0x100004490, symSize: 0x110 }
  - { offsetInCU: 0x143C0, offset: 0x143C0, size: 0x8, addend: 0x0, symName: __ZN12InternalNode5EntryC1EP5TTree, symObjAddr: 0x5BC, symBinAddr: 0x1000045A0, symSize: 0x34 }
  - { offsetInCU: 0x143FA, offset: 0x143FA, size: 0x8, addend: 0x0, symName: __ZN5TTreeD2Ev, symObjAddr: 0x5F0, symBinAddr: 0x1000045D4, symSize: 0xC4 }
  - { offsetInCU: 0x14426, offset: 0x14426, size: 0x8, addend: 0x0, symName: __ZN12InternalNodeD1Ev, symObjAddr: 0x6B4, symBinAddr: 0x100004698, symSize: 0x2C }
  - { offsetInCU: 0x14450, offset: 0x14450, size: 0x8, addend: 0x0, symName: __ZN5TTreeD1Ev, symObjAddr: 0x6E0, symBinAddr: 0x1000046C4, symSize: 0x2C }
  - { offsetInCU: 0x1447C, offset: 0x1447C, size: 0x8, addend: 0x0, symName: __ZN12InternalNode5EntryC2EP5TTree, symObjAddr: 0x70C, symBinAddr: 0x1000046F0, symSize: 0x54 }
  - { offsetInCU: 0x144B6, offset: 0x144B6, size: 0x8, addend: 0x0, symName: __ZN5TTree4bitsEv, symObjAddr: 0x760, symBinAddr: 0x100004744, symSize: 0x5C }
  - { offsetInCU: 0x144DF, offset: 0x144DF, size: 0x8, addend: 0x0, symName: __ZN5TTree4onesEv, symObjAddr: 0x7BC, symBinAddr: 0x1000047A0, symSize: 0x5C }
  - { offsetInCU: 0x14508, offset: 0x14508, size: 0x8, addend: 0x0, symName: __ZN12InternalNode5Entry6removeEv, symObjAddr: 0x818, symBinAddr: 0x1000047FC, symSize: 0x74 }
  - { offsetInCU: 0x14530, offset: 0x14530, size: 0x8, addend: 0x0, symName: __ZN5TTree9findChildEm, symObjAddr: 0x88C, symBinAddr: 0x100004870, symSize: 0x1E0 }
  - { offsetInCU: 0x145D6, offset: 0x145D6, size: 0x8, addend: 0x0, symName: __ZNSt11range_errorC1B8ue170006EPKc, symObjAddr: 0xA6C, symBinAddr: 0x100004A50, symSize: 0x34 }
  - { offsetInCU: 0x1460E, offset: 0x1460E, size: 0x8, addend: 0x0, symName: __ZN5TTree8findLeafEmPNSt3__16vectorI5NesboNS0_9allocatorIS2_EEEE, symObjAddr: 0xAA0, symBinAddr: 0x100004A84, symSize: 0x108 }
  - { offsetInCU: 0x146B6, offset: 0x146B6, size: 0x8, addend: 0x0, symName: __ZN5TTree9findLeaf2EmRNSt3__16vectorI5NesboNS0_9allocatorIS2_EEEE, symObjAddr: 0xBA8, symBinAddr: 0x100004B8C, symSize: 0x25C }
  - { offsetInCU: 0x1478A, offset: 0x1478A, size: 0x8, addend: 0x0, symName: __ZNKSt3__16vectorI5NesboNS_9allocatorIS1_EEE5emptyB8ue170006Ev, symObjAddr: 0xE04, symBinAddr: 0x100004DE8, symSize: 0x28 }
  - { offsetInCU: 0x147B0, offset: 0x147B0, size: 0x8, addend: 0x0, symName: __ZNKSt3__16vectorI5NesboNS_9allocatorIS1_EEE4sizeB8ue170006Ev, symObjAddr: 0xE2C, symBinAddr: 0x100004E10, symSize: 0x28 }
  - { offsetInCU: 0x147D6, offset: 0x147D6, size: 0x8, addend: 0x0, symName: __ZNSt3__16vectorI5NesboNS_9allocatorIS1_EEEixB8ue170006Em, symObjAddr: 0xE54, symBinAddr: 0x100004E38, symSize: 0x2C }
  - { offsetInCU: 0x1480D, offset: 0x1480D, size: 0x8, addend: 0x0, symName: __ZNSt3__16vectorI5NesboNS_9allocatorIS1_EEE8pop_backEv, symObjAddr: 0xE80, symBinAddr: 0x100004E64, symSize: 0x2C }
  - { offsetInCU: 0x1483A, offset: 0x1483A, size: 0x8, addend: 0x0, symName: __ZNSt3__16vectorI5NesboNS_9allocatorIS1_EEE12emplace_backIJRP5TTreeRmS9_S9_S9_EEEvDpOT_, symObjAddr: 0xEAC, symBinAddr: 0x100004E90, symSize: 0x9C }
  - { offsetInCU: 0x148CC, offset: 0x148CC, size: 0x8, addend: 0x0, symName: __ZN5TTree5rank1EmPNSt3__16vectorI5NesboNS0_9allocatorIS2_EEEE, symObjAddr: 0xF48, symBinAddr: 0x100004F2C, symSize: 0x68 }
  - { offsetInCU: 0x1492C, offset: 0x1492C, size: 0x8, addend: 0x0, symName: __ZN5TTree6accessEmPNSt3__16vectorI5NesboNS0_9allocatorIS2_EEEE, symObjAddr: 0xFB0, symBinAddr: 0x100004F94, symSize: 0x54 }
  - { offsetInCU: 0x1497E, offset: 0x1497E, size: 0x8, addend: 0x0, symName: __ZN5TTree6setBitEmbPNSt3__16vectorI5NesboNS0_9allocatorIS2_EEEE, symObjAddr: 0x1004, symBinAddr: 0x100004FE8, symSize: 0x174 }
  - { offsetInCU: 0x14A68, offset: 0x14A68, size: 0x8, addend: 0x0, symName: __ZN5TTree14updateCountersEll, symObjAddr: 0x1178, symBinAddr: 0x10000515C, symSize: 0xA0 }
  - { offsetInCU: 0x14AE4, offset: 0x14AE4, size: 0x8, addend: 0x0, symName: __ZNSt3__16vectorI5NesboNS_9allocatorIS1_EEE5beginB8ue170006Ev, symObjAddr: 0x1218, symBinAddr: 0x1000051FC, symSize: 0x30 }
  - { offsetInCU: 0x14B0C, offset: 0x14B0C, size: 0x8, addend: 0x0, symName: __ZNSt3__16vectorI5NesboNS_9allocatorIS1_EEE3endB8ue170006Ev, symObjAddr: 0x1248, symBinAddr: 0x10000522C, symSize: 0x30 }
  - { offsetInCU: 0x14B34, offset: 0x14B34, size: 0x8, addend: 0x0, symName: __ZNKSt3__111__wrap_iterIP5NesboEdeB8ue170006Ev, symObjAddr: 0x12AC, symBinAddr: 0x100005290, symSize: 0x18 }
  - { offsetInCU: 0x14B5A, offset: 0x14B5A, size: 0x8, addend: 0x0, symName: __ZNSt3__111__wrap_iterIP5NesboEppB8ue170006Ev, symObjAddr: 0x12C4, symBinAddr: 0x1000052A8, symSize: 0x20 }
  - { offsetInCU: 0x14B80, offset: 0x14B80, size: 0x8, addend: 0x0, symName: __ZN5TTree10insertBitsEmmPNSt3__16vectorI5NesboNS0_9allocatorIS2_EEEE, symObjAddr: 0x12E4, symBinAddr: 0x1000052C8, symSize: 0x80 }
  - { offsetInCU: 0x14BFC, offset: 0x14BFC, size: 0x8, addend: 0x0, symName: __ZN5TTree14checkSizeUpperEv, symObjAddr: 0x1364, symBinAddr: 0x100005348, symSize: 0xC8 }
  - { offsetInCU: 0x14C25, offset: 0x14C25, size: 0x8, addend: 0x0, symName: __ZN5TTree10deleteBitsEmmPNSt3__16vectorI5NesboNS0_9allocatorIS2_EEEE, symObjAddr: 0x142C, symBinAddr: 0x100005410, symSize: 0xB8 }
  - { offsetInCU: 0x14CCB, offset: 0x14CCB, size: 0x8, addend: 0x0, symName: __ZN5TTree14checkSizeLowerEv, symObjAddr: 0x14E4, symBinAddr: 0x1000054C8, symSize: 0x124 }
  - { offsetInCU: 0x14D03, offset: 0x14D03, size: 0x8, addend: 0x0, symName: __ZN5TTree11insertBlockEmPNSt3__16vectorI5NesboNS0_9allocatorIS2_EEEE, symObjAddr: 0x1608, symBinAddr: 0x1000055EC, symSize: 0x38 }
  - { offsetInCU: 0x14D47, offset: 0x14D47, size: 0x8, addend: 0x0, symName: __ZN5TTree11deleteBlockEmPNSt3__16vectorI5NesboNS0_9allocatorIS2_EEEE, symObjAddr: 0x1640, symBinAddr: 0x100005624, symSize: 0x38 }
  - { offsetInCU: 0x14D8B, offset: 0x14D8B, size: 0x8, addend: 0x0, symName: __ZN5TTree5depthEv, symObjAddr: 0x1678, symBinAddr: 0x10000565C, symSize: 0x5C }
  - { offsetInCU: 0x14DB3, offset: 0x14DB3, size: 0x8, addend: 0x0, symName: __ZN5TTree6heightEv, symObjAddr: 0x16D4, symBinAddr: 0x1000056B8, symSize: 0xE8 }
  - { offsetInCU: 0x14E77, offset: 0x14E77, size: 0x8, addend: 0x0, symName: __ZN5TTree4sizeEv, symObjAddr: 0x17BC, symBinAddr: 0x1000057A0, symSize: 0x64 }
  - { offsetInCU: 0x14EA0, offset: 0x14EA0, size: 0x8, addend: 0x0, symName: __ZN8LeafNode4bitsEv, symObjAddr: 0x1820, symBinAddr: 0x100005804, symSize: 0x24 }
  - { offsetInCU: 0x14EC9, offset: 0x14EC9, size: 0x8, addend: 0x0, symName: __ZN12InternalNode4bitsEv, symObjAddr: 0x1844, symBinAddr: 0x100005828, symSize: 0x84 }
  - { offsetInCU: 0x14F53, offset: 0x14F53, size: 0x8, addend: 0x0, symName: __ZN8LeafNode4onesEv, symObjAddr: 0x18C8, symBinAddr: 0x1000058AC, symSize: 0x34 }
  - { offsetInCU: 0x14F7C, offset: 0x14F7C, size: 0x8, addend: 0x0, symName: __ZN12InternalNode4onesEv, symObjAddr: 0x18FC, symBinAddr: 0x1000058E0, symSize: 0x84 }
  - { offsetInCU: 0x15006, offset: 0x15006, size: 0x8, addend: 0x0, symName: __ZN8LeafNodeC2Em, symObjAddr: 0x1980, symBinAddr: 0x100005964, symSize: 0x50 }
  - { offsetInCU: 0x15042, offset: 0x15042, size: 0x8, addend: 0x0, symName: __ZN8LeafNodeC2E9BitVector, symObjAddr: 0x19D0, symBinAddr: 0x1000059B4, symSize: 0x44 }
  - { offsetInCU: 0x1507F, offset: 0x1507F, size: 0x8, addend: 0x0, symName: __ZN12InternalNode8popFirstEv, symObjAddr: 0x1A14, symBinAddr: 0x1000059F8, symSize: 0x3C }
  - { offsetInCU: 0x150B9, offset: 0x150B9, size: 0x8, addend: 0x0, symName: __ZN12InternalNode6removeEm, symObjAddr: 0x1A50, symBinAddr: 0x100005A34, symSize: 0xF8 }
  - { offsetInCU: 0x1510E, offset: 0x1510E, size: 0x8, addend: 0x0, symName: __ZN12InternalNode7popLastEv, symObjAddr: 0x1B48, symBinAddr: 0x100005B2C, symSize: 0x8C }
  - { offsetInCU: 0x15148, offset: 0x15148, size: 0x8, addend: 0x0, symName: __ZN12InternalNode6insertEmNS_5EntryE, symObjAddr: 0x1BD4, symBinAddr: 0x100005BB8, symSize: 0x108 }
  - { offsetInCU: 0x151AD, offset: 0x151AD, size: 0x8, addend: 0x0, symName: __ZN12InternalNode6appendENS_5EntryE, symObjAddr: 0x1CDC, symBinAddr: 0x100005CC0, symSize: 0x58 }
  - { offsetInCU: 0x151E6, offset: 0x151E6, size: 0x8, addend: 0x0, symName: __ZN5TTreeC2Ev, symObjAddr: 0x1D34, symBinAddr: 0x100005D18, symSize: 0x54 }
  - { offsetInCU: 0x15213, offset: 0x15213, size: 0x8, addend: 0x0, symName: __ZN5TTreeC1Ev, symObjAddr: 0x1D88, symBinAddr: 0x100005D6C, symSize: 0x2C }
  - { offsetInCU: 0x15240, offset: 0x15240, size: 0x8, addend: 0x0, symName: __ZN5TTreeC2EPS_S0_, symObjAddr: 0x1DB4, symBinAddr: 0x100005D98, symSize: 0x8C }
  - { offsetInCU: 0x1528B, offset: 0x1528B, size: 0x8, addend: 0x0, symName: __ZN5TTreeC1EPS_S0_, symObjAddr: 0x1E40, symBinAddr: 0x100005E24, symSize: 0x3C }
  - { offsetInCU: 0x152D6, offset: 0x152D6, size: 0x8, addend: 0x0, symName: __ZN5TTreeC2E9BitVector, symObjAddr: 0x1E7C, symBinAddr: 0x100005E60, symSize: 0x74 }
  - { offsetInCU: 0x15313, offset: 0x15313, size: 0x8, addend: 0x0, symName: __ZN5TTreeC1E9BitVector, symObjAddr: 0x1EF0, symBinAddr: 0x100005ED4, symSize: 0x34 }
  - { offsetInCU: 0x15350, offset: 0x15350, size: 0x8, addend: 0x0, symName: __ZN5TTreeC2Em, symObjAddr: 0x1F24, symBinAddr: 0x100005F08, symSize: 0x5C }
  - { offsetInCU: 0x1538C, offset: 0x1538C, size: 0x8, addend: 0x0, symName: __ZN5TTreeC1Em, symObjAddr: 0x1F80, symBinAddr: 0x100005F64, symSize: 0x34 }
  - { offsetInCU: 0x153C8, offset: 0x153C8, size: 0x8, addend: 0x0, symName: __ZN5TTree12trySpillLeafEv, symObjAddr: 0x1FB4, symBinAddr: 0x100005F98, symSize: 0x15C }
  - { offsetInCU: 0x1541E, offset: 0x1541E, size: 0x8, addend: 0x0, symName: __ZN5TTree9splitLeafEv, symObjAddr: 0x2110, symBinAddr: 0x1000060F4, symSize: 0x220 }
  - { offsetInCU: 0x154D8, offset: 0x154D8, size: 0x8, addend: 0x0, symName: __ZN5TTree16trySpillInternalEv, symObjAddr: 0x2330, symBinAddr: 0x100006314, symSize: 0x15C }
  - { offsetInCU: 0x1552E, offset: 0x1552E, size: 0x8, addend: 0x0, symName: __ZN5TTree13splitInternalEv, symObjAddr: 0x248C, symBinAddr: 0x100006470, symSize: 0x350 }
  - { offsetInCU: 0x1561B, offset: 0x1561B, size: 0x8, addend: 0x0, symName: __ZN5TTree12tryStealLeafEv, symObjAddr: 0x27DC, symBinAddr: 0x1000067C0, symSize: 0x18C }
  - { offsetInCU: 0x15671, offset: 0x15671, size: 0x8, addend: 0x0, symName: __ZN5TTree9mergeLeafEv, symObjAddr: 0x2968, symBinAddr: 0x10000694C, symSize: 0x1F4 }
  - { offsetInCU: 0x15703, offset: 0x15703, size: 0x8, addend: 0x0, symName: __ZN5TTree16tryStealInternalEv, symObjAddr: 0x2B5C, symBinAddr: 0x100006B40, symSize: 0x18C }
  - { offsetInCU: 0x15759, offset: 0x15759, size: 0x8, addend: 0x0, symName: __ZN5TTree13mergeInternalEv, symObjAddr: 0x2CE8, symBinAddr: 0x100006CCC, symSize: 0x2CC }
  - { offsetInCU: 0x1583F, offset: 0x1583F, size: 0x8, addend: 0x0, symName: __ZN5TTree16moveLeftInternalEv, symObjAddr: 0x2FB4, symBinAddr: 0x100006F98, symSize: 0x150 }
  - { offsetInCU: 0x158C2, offset: 0x158C2, size: 0x8, addend: 0x0, symName: __ZN5TTree17moveRightInternalEv, symObjAddr: 0x3104, symBinAddr: 0x1000070E8, symSize: 0x154 }
  - { offsetInCU: 0x15936, offset: 0x15936, size: 0x8, addend: 0x0, symName: __ZN5TTree12moveLeftLeafEv, symObjAddr: 0x3258, symBinAddr: 0x10000723C, symSize: 0x15C }
  - { offsetInCU: 0x159B9, offset: 0x159B9, size: 0x8, addend: 0x0, symName: __ZN5TTree13moveRightLeafEv, symObjAddr: 0x33B4, symBinAddr: 0x100007398, symSize: 0x178 }
  - { offsetInCU: 0x15A5A, offset: 0x15A5A, size: 0x8, addend: 0x0, symName: __ZN5TTree11memoryUsageEv, symObjAddr: 0x352C, symBinAddr: 0x100007510, symSize: 0x100 }
  - { offsetInCU: 0x15B01, offset: 0x15B01, size: 0x8, addend: 0x0, symName: __ZN5LTree4NodeC2Ev, symObjAddr: 0x362C, symBinAddr: 0x100007610, symSize: 0x70 }
  - { offsetInCU: 0x15B2D, offset: 0x15B2D, size: 0x8, addend: 0x0, symName: __ZN9LLeafNodeC1Em, symObjAddr: 0x369C, symBinAddr: 0x100007680, symSize: 0x34 }
  - { offsetInCU: 0x15B69, offset: 0x15B69, size: 0x8, addend: 0x0, symName: __ZN5LTree4NodeC1Ev, symObjAddr: 0x36D0, symBinAddr: 0x1000076B4, symSize: 0x2C }
  - { offsetInCU: 0x15B95, offset: 0x15B95, size: 0x8, addend: 0x0, symName: __ZN5LTree4NodeC2EPS_S1_, symObjAddr: 0x36FC, symBinAddr: 0x1000076E0, symSize: 0x88 }
  - { offsetInCU: 0x15BDD, offset: 0x15BDD, size: 0x8, addend: 0x0, symName: __ZN13LInternalNodeC1EP5LTreeS1_S1_, symObjAddr: 0x3784, symBinAddr: 0x100007768, symSize: 0x44 }
  - { offsetInCU: 0x15C33, offset: 0x15C33, size: 0x8, addend: 0x0, symName: __ZN5LTree4NodeC1EPS_S1_, symObjAddr: 0x37C8, symBinAddr: 0x1000077AC, symSize: 0x3C }
  - { offsetInCU: 0x15C7B, offset: 0x15C7B, size: 0x8, addend: 0x0, symName: __ZN5LTree4NodeC2E9BitVector, symObjAddr: 0x3804, symBinAddr: 0x1000077E8, symSize: 0x94 }
  - { offsetInCU: 0x15CB6, offset: 0x15CB6, size: 0x8, addend: 0x0, symName: __ZN9LLeafNodeC1E9BitVector, symObjAddr: 0x3898, symBinAddr: 0x10000787C, symSize: 0x34 }
  - { offsetInCU: 0x15CF3, offset: 0x15CF3, size: 0x8, addend: 0x0, symName: __ZN5LTree4NodeC1E9BitVector, symObjAddr: 0x38CC, symBinAddr: 0x1000078B0, symSize: 0x34 }
  - { offsetInCU: 0x15D2E, offset: 0x15D2E, size: 0x8, addend: 0x0, symName: __ZN5LTree4NodeC2Em, symObjAddr: 0x3900, symBinAddr: 0x1000078E4, symSize: 0x74 }
  - { offsetInCU: 0x15D68, offset: 0x15D68, size: 0x8, addend: 0x0, symName: __ZN5LTree4NodeC1Em, symObjAddr: 0x3974, symBinAddr: 0x100007958, symSize: 0x34 }
  - { offsetInCU: 0x15DA2, offset: 0x15DA2, size: 0x8, addend: 0x0, symName: __ZN13LInternalNodeC2Ev, symObjAddr: 0x39A8, symBinAddr: 0x10000798C, symSize: 0xC4 }
  - { offsetInCU: 0x15DEA, offset: 0x15DEA, size: 0x8, addend: 0x0, symName: __ZN13LInternalNode5EntryC1Ev, symObjAddr: 0x3A6C, symBinAddr: 0x100007A50, symSize: 0x2C }
  - { offsetInCU: 0x15E14, offset: 0x15E14, size: 0x8, addend: 0x0, symName: __ZN13LInternalNodeC1Ev, symObjAddr: 0x3A98, symBinAddr: 0x100007A7C, symSize: 0x2C }
  - { offsetInCU: 0x15E40, offset: 0x15E40, size: 0x8, addend: 0x0, symName: __ZN13LInternalNodeC2EP5LTreeS1_S1_, symObjAddr: 0x3AC4, symBinAddr: 0x100007AA8, symSize: 0xF8 }
  - { offsetInCU: 0x15E96, offset: 0x15E96, size: 0x8, addend: 0x0, symName: __ZN13LInternalNode5EntryC1EP5LTree, symObjAddr: 0x3BBC, symBinAddr: 0x100007BA0, symSize: 0x34 }
  - { offsetInCU: 0x15ED0, offset: 0x15ED0, size: 0x8, addend: 0x0, symName: __ZN5LTreeC2Ev, symObjAddr: 0x3BF0, symBinAddr: 0x100007BD4, symSize: 0x40 }
  - { offsetInCU: 0x15EFC, offset: 0x15EFC, size: 0x8, addend: 0x0, symName: __ZN5LTreeC1Ev, symObjAddr: 0x3C30, symBinAddr: 0x100007C14, symSize: 0x2C }
  - { offsetInCU: 0x15F28, offset: 0x15F28, size: 0x8, addend: 0x0, symName: __ZN5LTreeC2EPS_S0_, symObjAddr: 0x3C5C, symBinAddr: 0x100007C40, symSize: 0x8C }
  - { offsetInCU: 0x15F70, offset: 0x15F70, size: 0x8, addend: 0x0, symName: __ZN5LTreeC1EPS_S0_, symObjAddr: 0x3CE8, symBinAddr: 0x100007CCC, symSize: 0x3C }
  - { offsetInCU: 0x15FB8, offset: 0x15FB8, size: 0x8, addend: 0x0, symName: __ZN5LTreeC2E9BitVector, symObjAddr: 0x3D24, symBinAddr: 0x100007D08, symSize: 0x74 }
  - { offsetInCU: 0x15FF3, offset: 0x15FF3, size: 0x8, addend: 0x0, symName: __ZN5LTreeC1E9BitVector, symObjAddr: 0x3D98, symBinAddr: 0x100007D7C, symSize: 0x34 }
  - { offsetInCU: 0x1602E, offset: 0x1602E, size: 0x8, addend: 0x0, symName: __ZN5LTreeC2Em, symObjAddr: 0x3DCC, symBinAddr: 0x100007DB0, symSize: 0x5C }
  - { offsetInCU: 0x16068, offset: 0x16068, size: 0x8, addend: 0x0, symName: __ZN5LTreeC1Em, symObjAddr: 0x3E28, symBinAddr: 0x100007E0C, symSize: 0x34 }
  - { offsetInCU: 0x160A2, offset: 0x160A2, size: 0x8, addend: 0x0, symName: __ZN5LTreeD2Ev, symObjAddr: 0x3E5C, symBinAddr: 0x100007E40, symSize: 0xC4 }
  - { offsetInCU: 0x160CE, offset: 0x160CE, size: 0x8, addend: 0x0, symName: __ZN13LInternalNodeD1Ev, symObjAddr: 0x3F20, symBinAddr: 0x100007F04, symSize: 0x2C }
  - { offsetInCU: 0x160F8, offset: 0x160F8, size: 0x8, addend: 0x0, symName: __ZN5LTreeD1Ev, symObjAddr: 0x3F4C, symBinAddr: 0x100007F30, symSize: 0x2C }
  - { offsetInCU: 0x16124, offset: 0x16124, size: 0x8, addend: 0x0, symName: __ZN13LInternalNode5EntryC2EP5LTree, symObjAddr: 0x3F78, symBinAddr: 0x100007F5C, symSize: 0x44 }
  - { offsetInCU: 0x1615E, offset: 0x1615E, size: 0x8, addend: 0x0, symName: __ZN5LTree4bitsEv, symObjAddr: 0x3FBC, symBinAddr: 0x100007FA0, symSize: 0x5C }
  - { offsetInCU: 0x16187, offset: 0x16187, size: 0x8, addend: 0x0, symName: __ZN13LInternalNode5Entry6removeEv, symObjAddr: 0x4018, symBinAddr: 0x100007FFC, symSize: 0x74 }
  - { offsetInCU: 0x161AF, offset: 0x161AF, size: 0x8, addend: 0x0, symName: __ZN5LTree9findChildEm, symObjAddr: 0x408C, symBinAddr: 0x100008070, symSize: 0x198 }
  - { offsetInCU: 0x16247, offset: 0x16247, size: 0x8, addend: 0x0, symName: __ZN5LTree8findLeafEmPNSt3__16vectorI6LNesboNS0_9allocatorIS2_EEEE, symObjAddr: 0x4224, symBinAddr: 0x100008208, symSize: 0xEC }
  - { offsetInCU: 0x162DF, offset: 0x162DF, size: 0x8, addend: 0x0, symName: __ZN5LTree9findLeaf2EmRNSt3__16vectorI6LNesboNS0_9allocatorIS2_EEEE, symObjAddr: 0x4310, symBinAddr: 0x1000082F4, symSize: 0x218 }
  - { offsetInCU: 0x163A2, offset: 0x163A2, size: 0x8, addend: 0x0, symName: __ZNKSt3__16vectorI6LNesboNS_9allocatorIS1_EEE5emptyB8ue170006Ev, symObjAddr: 0x4528, symBinAddr: 0x10000850C, symSize: 0x28 }
  - { offsetInCU: 0x163C8, offset: 0x163C8, size: 0x8, addend: 0x0, symName: __ZNKSt3__16vectorI6LNesboNS_9allocatorIS1_EEE4sizeB8ue170006Ev, symObjAddr: 0x4550, symBinAddr: 0x100008534, symSize: 0x28 }
  - { offsetInCU: 0x163EE, offset: 0x163EE, size: 0x8, addend: 0x0, symName: __ZNSt3__16vectorI6LNesboNS_9allocatorIS1_EEEixB8ue170006Em, symObjAddr: 0x4578, symBinAddr: 0x10000855C, symSize: 0x24 }
  - { offsetInCU: 0x16425, offset: 0x16425, size: 0x8, addend: 0x0, symName: __ZNSt3__16vectorI6LNesboNS_9allocatorIS1_EEE8pop_backEv, symObjAddr: 0x459C, symBinAddr: 0x100008580, symSize: 0x2C }
  - { offsetInCU: 0x16452, offset: 0x16452, size: 0x8, addend: 0x0, symName: __ZNSt3__16vectorI6LNesboNS_9allocatorIS1_EEE12emplace_backIJRP5LTreeRmS9_S9_EEEvDpOT_, symObjAddr: 0x45C8, symBinAddr: 0x1000085AC, symSize: 0x90 }
  - { offsetInCU: 0x164D0, offset: 0x164D0, size: 0x8, addend: 0x0, symName: __ZN5LTree6accessEmPNSt3__16vectorI6LNesboNS0_9allocatorIS2_EEEE, symObjAddr: 0x4658, symBinAddr: 0x10000863C, symSize: 0x58 }
  - { offsetInCU: 0x16522, offset: 0x16522, size: 0x8, addend: 0x0, symName: __ZN5LTree6setBitEmbPNSt3__16vectorI6LNesboNS0_9allocatorIS2_EEEE, symObjAddr: 0x46B0, symBinAddr: 0x100008694, symSize: 0x88 }
  - { offsetInCU: 0x1659E, offset: 0x1659E, size: 0x8, addend: 0x0, symName: __ZN5LTree14updateCountersEl, symObjAddr: 0x4738, symBinAddr: 0x10000871C, symSize: 0x80 }
  - { offsetInCU: 0x1660C, offset: 0x1660C, size: 0x8, addend: 0x0, symName: __ZN5LTree10insertBitsEmmPNSt3__16vectorI6LNesboNS0_9allocatorIS2_EEEE, symObjAddr: 0x47B8, symBinAddr: 0x10000879C, symSize: 0x80 }
  - { offsetInCU: 0x16688, offset: 0x16688, size: 0x8, addend: 0x0, symName: __ZN5LTree14checkSizeUpperEv, symObjAddr: 0x4838, symBinAddr: 0x10000881C, symSize: 0xC8 }
  - { offsetInCU: 0x166B1, offset: 0x166B1, size: 0x8, addend: 0x0, symName: __ZN5LTree10deleteBitsEmmPNSt3__16vectorI6LNesboNS0_9allocatorIS2_EEEE, symObjAddr: 0x4900, symBinAddr: 0x1000088E4, symSize: 0xA0 }
  - { offsetInCU: 0x16749, offset: 0x16749, size: 0x8, addend: 0x0, symName: __ZN5LTree14checkSizeLowerEv, symObjAddr: 0x49A0, symBinAddr: 0x100008984, symSize: 0x124 }
  - { offsetInCU: 0x1677F, offset: 0x1677F, size: 0x8, addend: 0x0, symName: __ZN5LTree11insertBlockEmPNSt3__16vectorI6LNesboNS0_9allocatorIS2_EEEE, symObjAddr: 0x4AC4, symBinAddr: 0x100008AA8, symSize: 0x38 }
  - { offsetInCU: 0x167C6, offset: 0x167C6, size: 0x8, addend: 0x0, symName: __ZN5LTree11deleteBlockEmPNSt3__16vectorI6LNesboNS0_9allocatorIS2_EEEE, symObjAddr: 0x4AFC, symBinAddr: 0x100008AE0, symSize: 0x38 }
  - { offsetInCU: 0x1680D, offset: 0x1680D, size: 0x8, addend: 0x0, symName: __ZN5LTree5depthEv, symObjAddr: 0x4B34, symBinAddr: 0x100008B18, symSize: 0x5C }
  - { offsetInCU: 0x16836, offset: 0x16836, size: 0x8, addend: 0x0, symName: __ZN5LTree6heightEv, symObjAddr: 0x4B90, symBinAddr: 0x100008B74, symSize: 0xE8 }
  - { offsetInCU: 0x168FA, offset: 0x168FA, size: 0x8, addend: 0x0, symName: __ZN5LTree4sizeEv, symObjAddr: 0x4C78, symBinAddr: 0x100008C5C, symSize: 0x64 }
  - { offsetInCU: 0x16923, offset: 0x16923, size: 0x8, addend: 0x0, symName: __ZN9LLeafNode4bitsEv, symObjAddr: 0x4CDC, symBinAddr: 0x100008CC0, symSize: 0x24 }
  - { offsetInCU: 0x1694C, offset: 0x1694C, size: 0x8, addend: 0x0, symName: __ZN13LInternalNode4bitsEv, symObjAddr: 0x4D00, symBinAddr: 0x100008CE4, symSize: 0x84 }
  - { offsetInCU: 0x169D6, offset: 0x169D6, size: 0x8, addend: 0x0, symName: __ZN9LLeafNodeC2Em, symObjAddr: 0x4D84, symBinAddr: 0x100008D68, symSize: 0x50 }
  - { offsetInCU: 0x16A12, offset: 0x16A12, size: 0x8, addend: 0x0, symName: __ZN9LLeafNodeC2E9BitVector, symObjAddr: 0x4DD4, symBinAddr: 0x100008DB8, symSize: 0x44 }
  - { offsetInCU: 0x16A4F, offset: 0x16A4F, size: 0x8, addend: 0x0, symName: __ZN13LInternalNode8popFirstEv, symObjAddr: 0x4E18, symBinAddr: 0x100008DFC, symSize: 0x38 }
  - { offsetInCU: 0x16A87, offset: 0x16A87, size: 0x8, addend: 0x0, symName: __ZN13LInternalNode6removeEm, symObjAddr: 0x4E50, symBinAddr: 0x100008E34, symSize: 0xC4 }
  - { offsetInCU: 0x16ADC, offset: 0x16ADC, size: 0x8, addend: 0x0, symName: __ZN13LInternalNode7popLastEv, symObjAddr: 0x4F14, symBinAddr: 0x100008EF8, symSize: 0x64 }
  - { offsetInCU: 0x16B14, offset: 0x16B14, size: 0x8, addend: 0x0, symName: __ZN13LInternalNode6insertEmNS_5EntryE, symObjAddr: 0x4F78, symBinAddr: 0x100008F5C, symSize: 0xCC }
  - { offsetInCU: 0x16B78, offset: 0x16B78, size: 0x8, addend: 0x0, symName: __ZN13LInternalNode6appendENS_5EntryE, symObjAddr: 0x5044, symBinAddr: 0x100009028, symSize: 0x44 }
  - { offsetInCU: 0x16BB0, offset: 0x16BB0, size: 0x8, addend: 0x0, symName: __ZN5LTree12trySpillLeafEv, symObjAddr: 0x5088, symBinAddr: 0x10000906C, symSize: 0x14C }
  - { offsetInCU: 0x16C06, offset: 0x16C06, size: 0x8, addend: 0x0, symName: __ZN5LTree9splitLeafEv, symObjAddr: 0x51D4, symBinAddr: 0x1000091B8, symSize: 0x1E4 }
  - { offsetInCU: 0x16CC0, offset: 0x16CC0, size: 0x8, addend: 0x0, symName: __ZN5LTree16trySpillInternalEv, symObjAddr: 0x53B8, symBinAddr: 0x10000939C, symSize: 0x14C }
  - { offsetInCU: 0x16D16, offset: 0x16D16, size: 0x8, addend: 0x0, symName: __ZN5LTree13splitInternalEv, symObjAddr: 0x5504, symBinAddr: 0x1000094E8, symSize: 0x2B8 }
  - { offsetInCU: 0x16DF2, offset: 0x16DF2, size: 0x8, addend: 0x0, symName: __ZN5LTree12tryStealLeafEv, symObjAddr: 0x57BC, symBinAddr: 0x1000097A0, symSize: 0x16C }
  - { offsetInCU: 0x16E48, offset: 0x16E48, size: 0x8, addend: 0x0, symName: __ZN5LTree9mergeLeafEv, symObjAddr: 0x5928, symBinAddr: 0x10000990C, symSize: 0x188 }
  - { offsetInCU: 0x16ECB, offset: 0x16ECB, size: 0x8, addend: 0x0, symName: __ZN5LTree16tryStealInternalEv, symObjAddr: 0x5AB0, symBinAddr: 0x100009A94, symSize: 0x16C }
  - { offsetInCU: 0x16F21, offset: 0x16F21, size: 0x8, addend: 0x0, symName: __ZN5LTree13mergeInternalEv, symObjAddr: 0x5C1C, symBinAddr: 0x100009C00, symSize: 0x254 }
  - { offsetInCU: 0x16FF5, offset: 0x16FF5, size: 0x8, addend: 0x0, symName: __ZN5LTree16moveLeftInternalEv, symObjAddr: 0x5E70, symBinAddr: 0x100009E54, symSize: 0xDC }
  - { offsetInCU: 0x17069, offset: 0x17069, size: 0x8, addend: 0x0, symName: __ZN5LTree17moveRightInternalEv, symObjAddr: 0x5F4C, symBinAddr: 0x100009F30, symSize: 0xE0 }
  - { offsetInCU: 0x170CE, offset: 0x170CE, size: 0x8, addend: 0x0, symName: __ZN5LTree12moveLeftLeafEv, symObjAddr: 0x602C, symBinAddr: 0x10000A010, symSize: 0xE0 }
  - { offsetInCU: 0x17142, offset: 0x17142, size: 0x8, addend: 0x0, symName: __ZN5LTree13moveRightLeafEv, symObjAddr: 0x610C, symBinAddr: 0x10000A0F0, symSize: 0xF8 }
  - { offsetInCU: 0x171D4, offset: 0x171D4, size: 0x8, addend: 0x0, symName: __ZN5LTree11memoryUsageEv, symObjAddr: 0x6204, symBinAddr: 0x10000A1E8, symSize: 0x100 }
  - { offsetInCU: 0x1727A, offset: 0x1727A, size: 0x8, addend: 0x0, symName: __Z8long_powmm, symObjAddr: 0x6304, symBinAddr: 0x10000A2E8, symSize: 0x90 }
  - { offsetInCU: 0x17737, offset: 0x17737, size: 0x8, addend: 0x0, symName: __ZN6DKTreeC2Ev, symObjAddr: 0x6394, symBinAddr: 0x10000A378, symSize: 0x178 }
  - { offsetInCU: 0x17763, offset: 0x17763, size: 0x8, addend: 0x0, symName: __ZNSt3__16vectorI5NesboNS_9allocatorIS1_EEEC1B8ue170006Ev, symObjAddr: 0x650C, symBinAddr: 0x10000A4F0, symSize: 0x2C }
  - { offsetInCU: 0x1778D, offset: 0x1778D, size: 0x8, addend: 0x0, symName: __ZNSt3__16vectorI6LNesboNS_9allocatorIS1_EEEC1B8ue170006Ev, symObjAddr: 0x6538, symBinAddr: 0x10000A51C, symSize: 0x2C }
  - { offsetInCU: 0x177B7, offset: 0x177B7, size: 0x8, addend: 0x0, symName: __ZNSt3__16vectorImNS_9allocatorImEEEC1B8ue170006Ev, symObjAddr: 0x6564, symBinAddr: 0x10000A548, symSize: 0x2C }
  - { offsetInCU: 0x177E1, offset: 0x177E1, size: 0x8, addend: 0x0, symName: __ZNSt3__16vectorImNS_9allocatorImEEED1B8ue170006Ev, symObjAddr: 0x6590, symBinAddr: 0x10000A574, symSize: 0x2C }
  - { offsetInCU: 0x1780B, offset: 0x1780B, size: 0x8, addend: 0x0, symName: __ZNSt3__16vectorI6LNesboNS_9allocatorIS1_EEED1B8ue170006Ev, symObjAddr: 0x65C8, symBinAddr: 0x10000A5AC, symSize: 0x2C }
  - { offsetInCU: 0x17835, offset: 0x17835, size: 0x8, addend: 0x0, symName: __ZNSt3__16vectorI5NesboNS_9allocatorIS1_EEED1B8ue170006Ev, symObjAddr: 0x65F4, symBinAddr: 0x10000A5D8, symSize: 0x2C }
  - { offsetInCU: 0x1785F, offset: 0x1785F, size: 0x8, addend: 0x0, symName: __ZN6DKTreeC1Ev, symObjAddr: 0x6620, symBinAddr: 0x10000A604, symSize: 0x2C }
  - { offsetInCU: 0x1788B, offset: 0x1788B, size: 0x8, addend: 0x0, symName: __ZN6DKTreeC2Em, symObjAddr: 0x664C, symBinAddr: 0x10000A630, symSize: 0x17C }
  - { offsetInCU: 0x178C5, offset: 0x178C5, size: 0x8, addend: 0x0, symName: __ZN6DKTreeC1Em, symObjAddr: 0x67C8, symBinAddr: 0x10000A7AC, symSize: 0x34 }
  - { offsetInCU: 0x178FF, offset: 0x178FF, size: 0x8, addend: 0x0, symName: __ZN6DKTreeD2Ev, symObjAddr: 0x67FC, symBinAddr: 0x10000A7E0, symSize: 0x160 }
  - { offsetInCU: 0x1792B, offset: 0x1792B, size: 0x8, addend: 0x0, symName: __ZN6DKTreeD1Ev, symObjAddr: 0x695C, symBinAddr: 0x10000A940, symSize: 0x2C }
  - { offsetInCU: 0x17957, offset: 0x17957, size: 0x8, addend: 0x0, symName: __ZN6DKTree7addEdgeEmm, symObjAddr: 0x6988, symBinAddr: 0x10000A96C, symSize: 0x320 }
  - { offsetInCU: 0x17A4C, offset: 0x17A4C, size: 0x8, addend: 0x0, symName: __ZN6DKTree13checkArgumentEmNSt3__112basic_stringIcNS0_11char_traitsIcEENS0_9allocatorIcEEEE, symObjAddr: 0x6CA8, symBinAddr: 0x10000AC8C, symSize: 0x50C }
  - { offsetInCU: 0x17B41, offset: 0x17B41, size: 0x8, addend: 0x0, symName: __ZNSt3__112basic_stringIcNS_11char_traitsIcEENS_9allocatorIcEEEC1B8ue170006ILi0EEEPKc, symObjAddr: 0x71B4, symBinAddr: 0x10000B198, symSize: 0x34 }
  - { offsetInCU: 0x17B80, offset: 0x17B80, size: 0x8, addend: 0x0, symName: __ZN6DKTree15calculateOffsetEmmm, symObjAddr: 0x71E8, symBinAddr: 0x10000B1CC, symSize: 0x150 }
  - { offsetInCU: 0x17C30, offset: 0x17C30, size: 0x8, addend: 0x0, symName: __ZN6DKTree28traverseToFirst0OrEndOfTTreeEmmRmS0_Rb, symObjAddr: 0x7338, symBinAddr: 0x10000B31C, symSize: 0x12C }
  - { offsetInCU: 0x17CDF, offset: 0x17CDF, size: 0x8, addend: 0x0, symName: __ZN6DKTree16insertBlockTtreeEm, symObjAddr: 0x7464, symBinAddr: 0x10000B448, symSize: 0x6C }
  - { offsetInCU: 0x17D26, offset: 0x17D26, size: 0x8, addend: 0x0, symName: __ZN6DKTree16insertBlockLtreeEm, symObjAddr: 0x74D0, symBinAddr: 0x10000B4B4, symSize: 0x6C }
  - { offsetInCU: 0x17D6D, offset: 0x17D6D, size: 0x8, addend: 0x0, symName: __ZN6DKTree10removeEdgeEmm, symObjAddr: 0x753C, symBinAddr: 0x10000B520, symSize: 0x44 }
  - { offsetInCU: 0x17DCD, offset: 0x17DCD, size: 0x8, addend: 0x0, symName: __ZN6DKTree14deleteThisEdgeEmmmm, symObjAddr: 0x7580, symBinAddr: 0x10000B564, symSize: 0xFC }
  - { offsetInCU: 0x17E3B, offset: 0x17E3B, size: 0x8, addend: 0x0, symName: __ZN6DKTree15deleteLTreeEdgeEmm, symObjAddr: 0x767C, symBinAddr: 0x10000B660, symSize: 0x120 }
  - { offsetInCU: 0x17EC5, offset: 0x17EC5, size: 0x8, addend: 0x0, symName: __ZN6DKTree15deleteTTreeEdgeEmmmmm, symObjAddr: 0x779C, symBinAddr: 0x10000B780, symSize: 0x1B8 }
  - { offsetInCU: 0x17F87, offset: 0x17F87, size: 0x8, addend: 0x0, symName: __ZN6DKTree16deleteBlockTtreeEm, symObjAddr: 0x7954, symBinAddr: 0x10000B938, symSize: 0x6C }
  - { offsetInCU: 0x17FCE, offset: 0x17FCE, size: 0x8, addend: 0x0, symName: __ZN6DKTree16deleteBlockLtreeEm, symObjAddr: 0x79C0, symBinAddr: 0x10000B9A4, symSize: 0x6C }
  - { offsetInCU: 0x18015, offset: 0x18015, size: 0x8, addend: 0x0, symName: __ZN6DKTree11insertEntryEv, symObjAddr: 0x7A2C, symBinAddr: 0x10000BA10, symSize: 0xCC }
  - { offsetInCU: 0x1804B, offset: 0x1804B, size: 0x8, addend: 0x0, symName: __ZNKSt3__16vectorImNS_9allocatorImEEE5emptyB8ue170006Ev, symObjAddr: 0x7AF8, symBinAddr: 0x10000BADC, symSize: 0x28 }
  - { offsetInCU: 0x18071, offset: 0x18071, size: 0x8, addend: 0x0, symName: __ZNSt3__16vectorImNS_9allocatorImEEE5frontB8ue170006Ev, symObjAddr: 0x7B20, symBinAddr: 0x10000BB04, symSize: 0x18 }
  - { offsetInCU: 0x18097, offset: 0x18097, size: 0x8, addend: 0x0, symName: __ZNSt3__16vectorImNS_9allocatorImEEE5eraseB8ue170006ENS_11__wrap_iterIPKmEE, symObjAddr: 0x7B38, symBinAddr: 0x10000BB1C, symSize: 0x94 }
  - { offsetInCU: 0x180EC, offset: 0x180EC, size: 0x8, addend: 0x0, symName: __ZNSt3__16vectorImNS_9allocatorImEEE5beginB8ue170006Ev, symObjAddr: 0x7BCC, symBinAddr: 0x10000BBB0, symSize: 0x30 }
  - { offsetInCU: 0x1811E, offset: 0x1811E, size: 0x8, addend: 0x0, symName: __ZNSt3__111__wrap_iterIPKmEC1B8ue170006IPmEERKNS0_IT_EEPNS_9enable_ifIXsr14is_convertibleIS6_S2_EE5valueEvE4typeE, symObjAddr: 0x7BFC, symBinAddr: 0x10000BBE0, symSize: 0x3C }
  - { offsetInCU: 0x1816A, offset: 0x1816A, size: 0x8, addend: 0x0, symName: __ZN6DKTree18increaseMatrixSizeEv, symObjAddr: 0x7C38, symBinAddr: 0x10000BC1C, symSize: 0x84 }
  - { offsetInCU: 0x181A2, offset: 0x181A2, size: 0x8, addend: 0x0, symName: __ZN6DKTree11deleteEntryEm, symObjAddr: 0x7CBC, symBinAddr: 0x10000BCA0, symSize: 0x2B0 }
  - { offsetInCU: 0x18246, offset: 0x18246, size: 0x8, addend: 0x0, symName: __ZNSt3__16vectorImNS_9allocatorImEEEC1EmRKm, symObjAddr: 0x7F6C, symBinAddr: 0x10000BF50, symSize: 0x3C }
  - { offsetInCU: 0x18290, offset: 0x18290, size: 0x8, addend: 0x0, symName: __ZNSt3__16vectorImNS_9allocatorImEEE9push_backB8ue170006ERKm, symObjAddr: 0x7FA8, symBinAddr: 0x10000BF8C, symSize: 0x6C }
  - { offsetInCU: 0x182C7, offset: 0x182C7, size: 0x8, addend: 0x0, symName: __ZNKSt3__16vectorImNS_9allocatorImEEE4sizeB8ue170006Ev, symObjAddr: 0x8014, symBinAddr: 0x10000BFF8, symSize: 0x28 }
  - { offsetInCU: 0x182ED, offset: 0x182ED, size: 0x8, addend: 0x0, symName: __ZNKSt3__111__wrap_iterIPmEplB8ue170006El, symObjAddr: 0x803C, symBinAddr: 0x10000C020, symSize: 0x3C }
  - { offsetInCU: 0x1832F, offset: 0x1832F, size: 0x8, addend: 0x0, symName: __ZNSt3__16vectorImNS_9allocatorImEEEixB8ue170006Em, symObjAddr: 0x8078, symBinAddr: 0x10000C05C, symSize: 0x24 }
  - { offsetInCU: 0x18366, offset: 0x18366, size: 0x8, addend: 0x0, symName: __ZN10VectorDataC1ERNSt3__16vectorImNS0_9allocatorImEEEE, symObjAddr: 0x809C, symBinAddr: 0x10000C080, symSize: 0x34 }
  - { offsetInCU: 0x1839E, offset: 0x1839E, size: 0x8, addend: 0x0, symName: __ZN6DKTree11deleteEdgesER10VectorDataS1_, symObjAddr: 0x80D0, symBinAddr: 0x10000C0B4, symSize: 0x524 }
  - { offsetInCU: 0x1853A, offset: 0x1853A, size: 0x8, addend: 0x0, symName: __ZNSt3__16vectorImNS_9allocatorImEEE3endB8ue170006Ev, symObjAddr: 0x8630, symBinAddr: 0x10000C614, symSize: 0x30 }
  - { offsetInCU: 0x18646, offset: 0x18646, size: 0x8, addend: 0x0, symName: __ZNSt3__118basic_stringstreamIcNS_11char_traitsIcEENS_9allocatorIcEEEC1B8ue170006Ev, symObjAddr: 0x8660, symBinAddr: 0x10000C644, symSize: 0x110 }
  - { offsetInCU: 0x18670, offset: 0x18670, size: 0x8, addend: 0x0, symName: __ZNKSt3__118basic_stringstreamIcNS_11char_traitsIcEENS_9allocatorIcEEE3strB8ue170006Ev, symObjAddr: 0x87B8, symBinAddr: 0x10000C79C, symSize: 0x30 }
  - { offsetInCU: 0x18696, offset: 0x18696, size: 0x8, addend: 0x0, symName: __ZNSt16invalid_argumentC1B8ue170006ERKNSt3__112basic_stringIcNS0_11char_traitsIcEENS0_9allocatorIcEEEE, symObjAddr: 0x87E8, symBinAddr: 0x10000C7CC, symSize: 0x34 }
  - { offsetInCU: 0x186D3, offset: 0x186D3, size: 0x8, addend: 0x0, symName: __ZNSt3__118basic_stringstreamIcNS_11char_traitsIcEENS_9allocatorIcEEED1Ev, symObjAddr: 0x881C, symBinAddr: 0x10000C800, symSize: 0x70 }
  - { offsetInCU: 0x18700, offset: 0x18700, size: 0x8, addend: 0x0, symName: __ZNK6DKTree20splitEntriesOnOffsetERK10VectorDatamPiS3_, symObjAddr: 0x888C, symBinAddr: 0x10000C870, symSize: 0x150 }
  - { offsetInCU: 0x187CC, offset: 0x187CC, size: 0x8, addend: 0x0, symName: __ZN10VectorDataC1ERS_mmmm, symObjAddr: 0x89DC, symBinAddr: 0x10000C9C0, symSize: 0x54 }
  - { offsetInCU: 0x1883C, offset: 0x1883C, size: 0x8, addend: 0x0, symName: __ZN6DKTree20deleteEdgesFromLTreeER10VectorDataS1_, symObjAddr: 0x8A30, symBinAddr: 0x10000CA14, symSize: 0x330 }
  - { offsetInCU: 0x1894F, offset: 0x1894F, size: 0x8, addend: 0x0, symName: __ZNKSt3__16vectorImNS_9allocatorImEEEixB8ue170006Em, symObjAddr: 0x8D60, symBinAddr: 0x10000CD44, symSize: 0x24 }
  - { offsetInCU: 0x18986, offset: 0x18986, size: 0x8, addend: 0x0, symName: __ZN6DKTree10reportEdgeEmm, symObjAddr: 0x8D84, symBinAddr: 0x10000CD68, symSize: 0x188 }
  - { offsetInCU: 0x18A29, offset: 0x18A29, size: 0x8, addend: 0x0, symName: __ZN6DKTree14reportAllEdgesERKNSt3__16vectorImNS0_9allocatorImEEEES6_, symObjAddr: 0x8F0C, symBinAddr: 0x10000CEF0, symSize: 0x184 }
  - { offsetInCU: 0x18ABE, offset: 0x18ABE, size: 0x8, addend: 0x0, symName: __ZNSt3__16vectorImNS_9allocatorImEEEC1ERKS3_, symObjAddr: 0x9090, symBinAddr: 0x10000D074, symSize: 0x34 }
  - { offsetInCU: 0x18AF9, offset: 0x18AF9, size: 0x8, addend: 0x0, symName: __ZN6DKTree18sortAndCheckVectorERNSt3__16vectorImNS0_9allocatorImEEEE, symObjAddr: 0x90C4, symBinAddr: 0x10000D0A8, symSize: 0x2C0 }
  - { offsetInCU: 0x18BA5, offset: 0x18BA5, size: 0x8, addend: 0x0, symName: __ZNSt3__16vectorINS_4pairImmEENS_9allocatorIS2_EEEC1B8ue170006Ev, symObjAddr: 0x9384, symBinAddr: 0x10000D368, symSize: 0x2C }
  - { offsetInCU: 0x18BCF, offset: 0x18BCF, size: 0x8, addend: 0x0, symName: __ZN6DKTree12findAllEdgesER10VectorDataS1_RNSt3__16vectorINS2_4pairImmEENS2_9allocatorIS5_EEEE, symObjAddr: 0x93B0, symBinAddr: 0x10000D394, symSize: 0x414 }
  - { offsetInCU: 0x18D7D, offset: 0x18D7D, size: 0x8, addend: 0x0, symName: __ZNSt3__16vectorINS_4pairImmEENS_9allocatorIS2_EEED1B8ue170006Ev, symObjAddr: 0x97C4, symBinAddr: 0x10000D7A8, symSize: 0x2C }
  - { offsetInCU: 0x18DA7, offset: 0x18DA7, size: 0x8, addend: 0x0, symName: __ZN6DKTree16findEdgesInLTreeERK10VectorDataS2_RNSt3__16vectorINS3_4pairImmEENS3_9allocatorIS6_EEEE, symObjAddr: 0x97F0, symBinAddr: 0x10000D7D4, symSize: 0x2E4 }
  - { offsetInCU: 0x18ECA, offset: 0x18ECA, size: 0x8, addend: 0x0, symName: __ZNSt3__14pairImmEC1B8ue170006ERKmS3_, symObjAddr: 0x9AD4, symBinAddr: 0x10000DAB8, symSize: 0x3C }
  - { offsetInCU: 0x18F10, offset: 0x18F10, size: 0x8, addend: 0x0, symName: __ZNSt3__16vectorINS_4pairImmEENS_9allocatorIS2_EEE9push_backB8ue170006ERKS2_, symObjAddr: 0x9B10, symBinAddr: 0x10000DAF4, symSize: 0x6C }
  - { offsetInCU: 0x18F47, offset: 0x18F47, size: 0x8, addend: 0x0, symName: __ZN6DKTree7printttEv, symObjAddr: 0x9B7C, symBinAddr: 0x10000DB60, symSize: 0xA0 }
  - { offsetInCU: 0x18F70, offset: 0x18F70, size: 0x8, addend: 0x0, symName: __ZNSt3__113basic_ostreamIcNS_11char_traitsIcEEElsB8ue170006EPFRS3_S4_E, symObjAddr: 0x9C1C, symBinAddr: 0x10000DC00, symSize: 0x2C }
  - { offsetInCU: 0x18FA4, offset: 0x18FA4, size: 0x8, addend: 0x0, symName: __ZN6DKTree10printttreeEP5TTreem, symObjAddr: 0x9CA0, symBinAddr: 0x10000DC84, symSize: 0x26C }
  - { offsetInCU: 0x190DF, offset: 0x190DF, size: 0x8, addend: 0x0, symName: __ZN6DKTree10printltreeEP5LTreem, symObjAddr: 0x9F0C, symBinAddr: 0x10000DEF0, symSize: 0x254 }
  - { offsetInCU: 0x19218, offset: 0x19218, size: 0x8, addend: 0x0, symName: __ZNSt3__112basic_stringIcNS_11char_traitsIcEENS_9allocatorIcEEEC1B8ue170006Ev, symObjAddr: 0xA160, symBinAddr: 0x10000E144, symSize: 0x2C }
  - { offsetInCU: 0x19242, offset: 0x19242, size: 0x8, addend: 0x0, symName: __ZNSt3__112basic_stringIcNS_11char_traitsIcEENS_9allocatorIcEEEpLB8ue170006EPKc, symObjAddr: 0xA18C, symBinAddr: 0x10000E170, symSize: 0x2C }
  - { offsetInCU: 0x19277, offset: 0x19277, size: 0x8, addend: 0x0, symName: __ZNKSt3__112basic_stringIcNS_11char_traitsIcEENS_9allocatorIcEEE5c_strB8ue170006Ev, symObjAddr: 0xA1B8, symBinAddr: 0x10000E19C, symSize: 0x24 }
  - { offsetInCU: 0x1929D, offset: 0x1929D, size: 0x8, addend: 0x0, symName: __ZNSt16invalid_argumentC1B8ue170006EPKc, symObjAddr: 0xA1DC, symBinAddr: 0x10000E1C0, symSize: 0x34 }
  - { offsetInCU: 0x192D5, offset: 0x192D5, size: 0x8, addend: 0x0, symName: __ZNKSt3__111__wrap_iterIPmEdeB8ue170006Ev, symObjAddr: 0xA290, symBinAddr: 0x10000E274, symSize: 0x18 }
  - { offsetInCU: 0x192FB, offset: 0x192FB, size: 0x8, addend: 0x0, symName: __ZNSt3__111__wrap_iterIPmEppB8ue170006Ev, symObjAddr: 0xA2A8, symBinAddr: 0x10000E28C, symSize: 0x20 }
  - { offsetInCU: 0x19321, offset: 0x19321, size: 0x8, addend: 0x0, symName: __ZNSt3__16vectorImNS_9allocatorImEEE5eraseENS_11__wrap_iterIPKmEES7_, symObjAddr: 0xA2C8, symBinAddr: 0x10000E2AC, symSize: 0xD0 }
  - { offsetInCU: 0x19376, offset: 0x19376, size: 0x8, addend: 0x0, symName: __ZNSt3__16vectorI5NesboNS_9allocatorIS1_EEE5clearB8ue170006Ev, symObjAddr: 0xA3DC, symBinAddr: 0x10000E3C0, symSize: 0x44 }
  - { offsetInCU: 0x193AB, offset: 0x193AB, size: 0x8, addend: 0x0, symName: __ZNSt3__16vectorI6LNesboNS_9allocatorIS1_EEE5clearB8ue170006Ev, symObjAddr: 0xA420, symBinAddr: 0x10000E404, symSize: 0x44 }
  - { offsetInCU: 0x193E0, offset: 0x193E0, size: 0x8, addend: 0x0, symName: __ZN6DKTree11memoryUsageEv, symObjAddr: 0xA464, symBinAddr: 0x10000E448, symSize: 0x198 }
  - { offsetInCU: 0x19481, offset: 0x19481, size: 0x8, addend: 0x0, symName: _main, symObjAddr: 0xA5FC, symBinAddr: 0x10000E5E0, symSize: 0x3C }
  - { offsetInCU: 0x1949B, offset: 0x1949B, size: 0x8, addend: 0x0, symName: __ZN12InternalNode5EntryC2Ev, symObjAddr: 0xA638, symBinAddr: 0x10000E61C, symSize: 0x20 }
  - { offsetInCU: 0x194C5, offset: 0x194C5, size: 0x8, addend: 0x0, symName: __ZN12InternalNodeD2Ev, symObjAddr: 0xA658, symBinAddr: 0x10000E63C, symSize: 0x84 }
  - { offsetInCU: 0x19540, offset: 0x19540, size: 0x8, addend: 0x0, symName: __ZNSt11range_errorC2B8ue170006EPKc, symObjAddr: 0xA6DC, symBinAddr: 0x10000E6C0, symSize: 0x4C }
  - { offsetInCU: 0x19578, offset: 0x19578, size: 0x8, addend: 0x0, symName: __ZN13LInternalNode5EntryC2Ev, symObjAddr: 0xA728, symBinAddr: 0x10000E70C, symSize: 0x1C }
  - { offsetInCU: 0x195A2, offset: 0x195A2, size: 0x8, addend: 0x0, symName: __ZN13LInternalNodeD2Ev, symObjAddr: 0xA744, symBinAddr: 0x10000E728, symSize: 0x84 }
  - { offsetInCU: 0x1961D, offset: 0x1961D, size: 0x8, addend: 0x0, symName: __ZN10VectorDataC2ERNSt3__16vectorImNS0_9allocatorImEEEE, symObjAddr: 0xA7C8, symBinAddr: 0x10000E7AC, symSize: 0x54 }
  - { offsetInCU: 0x19655, offset: 0x19655, size: 0x8, addend: 0x0, symName: __ZNSt16invalid_argumentC2B8ue170006ERKNSt3__112basic_stringIcNS0_11char_traitsIcEENS0_9allocatorIcEEEE, symObjAddr: 0xA81C, symBinAddr: 0x10000E800, symSize: 0x4C }
  - { offsetInCU: 0x1968D, offset: 0x1968D, size: 0x8, addend: 0x0, symName: __ZNSt3__118basic_stringstreamIcNS_11char_traitsIcEENS_9allocatorIcEEED2Ev, symObjAddr: 0xA868, symBinAddr: 0x10000E84C, symSize: 0xA4 }
  - { offsetInCU: 0x196C7, offset: 0x196C7, size: 0x8, addend: 0x0, symName: __ZThn16_NSt3__118basic_stringstreamIcNS_11char_traitsIcEENS_9allocatorIcEEED1Ev, symObjAddr: 0xA90C, symBinAddr: 0x10000E8F0, symSize: 0x1C }
  - { offsetInCU: 0x196DE, offset: 0x196DE, size: 0x8, addend: 0x0, symName: __ZTv0_n24_NSt3__118basic_stringstreamIcNS_11char_traitsIcEENS_9allocatorIcEEED1Ev, symObjAddr: 0xA928, symBinAddr: 0x10000E90C, symSize: 0x28 }
  - { offsetInCU: 0x196FA, offset: 0x196FA, size: 0x8, addend: 0x0, symName: __ZNSt3__115basic_stringbufIcNS_11char_traitsIcEENS_9allocatorIcEEED1Ev, symObjAddr: 0xA950, symBinAddr: 0x10000E934, symSize: 0x2C }
  - { offsetInCU: 0x19727, offset: 0x19727, size: 0x8, addend: 0x0, symName: __ZNSt3__115basic_stringbufIcNS_11char_traitsIcEENS_9allocatorIcEEED2Ev, symObjAddr: 0xA97C, symBinAddr: 0x10000E960, symSize: 0x78 }
  - { offsetInCU: 0x19754, offset: 0x19754, size: 0x8, addend: 0x0, symName: __ZN10VectorDataC2ERS_mmmm, symObjAddr: 0xA9F4, symBinAddr: 0x10000E9D8, symSize: 0x54 }
  - { offsetInCU: 0x197C4, offset: 0x197C4, size: 0x8, addend: 0x0, symName: __ZNSt16invalid_argumentC2B8ue170006EPKc, symObjAddr: 0xAA48, symBinAddr: 0x10000EA2C, symSize: 0x4C }
  - { offsetInCU: 0x197FC, offset: 0x197FC, size: 0x8, addend: 0x0, symName: __ZNSt3__16vectorI5NesboNS_9allocatorIS1_EEE17__destruct_at_endB8ue170006EPS1_, symObjAddr: 0xAA94, symBinAddr: 0x10000EA78, symSize: 0x4C }
  - { offsetInCU: 0x19840, offset: 0x19840, size: 0x8, addend: 0x0, symName: __ZNSt3__16vectorI5NesboNS_9allocatorIS1_EEE22__base_destruct_at_endB8ue170006EPS1_, symObjAddr: 0xAAE0, symBinAddr: 0x10000EAC4, symSize: 0xA0 }
  - { offsetInCU: 0x19884, offset: 0x19884, size: 0x8, addend: 0x0, symName: __ZNKSt3__16vectorI5NesboNS_9allocatorIS1_EEE17__annotate_shrinkB8ue170006Em, symObjAddr: 0xAB80, symBinAddr: 0x10000EB64, symSize: 0xD0 }
  - { offsetInCU: 0x198B9, offset: 0x198B9, size: 0x8, addend: 0x0, symName: __ZNSt3__116allocator_traitsINS_9allocatorI5NesboEEE7destroyB8ue170006IS2_vEEvRS3_PT_, symObjAddr: 0xAC50, symBinAddr: 0x10000EC34, symSize: 0x2C }
  - { offsetInCU: 0x198F6, offset: 0x198F6, size: 0x8, addend: 0x0, symName: __ZNSt3__16vectorI5NesboNS_9allocatorIS1_EEE7__allocB8ue170006Ev, symObjAddr: 0xAC7C, symBinAddr: 0x10000EC60, symSize: 0x28 }
  - { offsetInCU: 0x1991C, offset: 0x1991C, size: 0x8, addend: 0x0, symName: __ZNSt3__19allocatorI5NesboE7destroyB8ue170006EPS1_, symObjAddr: 0xACB8, symBinAddr: 0x10000EC9C, symSize: 0x14 }
  - { offsetInCU: 0x19950, offset: 0x19950, size: 0x8, addend: 0x0, symName: __ZNSt3__117__compressed_pairIP5NesboNS_9allocatorIS1_EEE6secondB8ue170006Ev, symObjAddr: 0xACCC, symBinAddr: 0x10000ECB0, symSize: 0x24 }
  - { offsetInCU: 0x19976, offset: 0x19976, size: 0x8, addend: 0x0, symName: __ZNSt3__122__compressed_pair_elemINS_9allocatorI5NesboEELi1ELb1EE5__getB8ue170006Ev, symObjAddr: 0xACF0, symBinAddr: 0x10000ECD4, symSize: 0x14 }
  - { offsetInCU: 0x1999C, offset: 0x1999C, size: 0x8, addend: 0x0, symName: __ZNKSt3__16vectorI5NesboNS_9allocatorIS1_EEE31__annotate_contiguous_containerB8ue170006EPKvS6_S6_S6_, symObjAddr: 0xAD04, symBinAddr: 0x10000ECE8, symSize: 0x20 }
  - { offsetInCU: 0x199EE, offset: 0x199EE, size: 0x8, addend: 0x0, symName: __ZNKSt3__16vectorI5NesboNS_9allocatorIS1_EEE4dataB8ue170006Ev, symObjAddr: 0xAD24, symBinAddr: 0x10000ED08, symSize: 0x28 }
  - { offsetInCU: 0x19A14, offset: 0x19A14, size: 0x8, addend: 0x0, symName: __ZNKSt3__16vectorI5NesboNS_9allocatorIS1_EEE8capacityB8ue170006Ev, symObjAddr: 0xAD4C, symBinAddr: 0x10000ED30, symSize: 0x40 }
  - { offsetInCU: 0x19A3A, offset: 0x19A3A, size: 0x8, addend: 0x0, symName: __ZNKSt3__16vectorI5NesboNS_9allocatorIS1_EEE9__end_capB8ue170006Ev, symObjAddr: 0xAD8C, symBinAddr: 0x10000ED70, symSize: 0x28 }
  - { offsetInCU: 0x19A60, offset: 0x19A60, size: 0x8, addend: 0x0, symName: __ZNKSt3__117__compressed_pairIP5NesboNS_9allocatorIS1_EEE5firstB8ue170006Ev, symObjAddr: 0xADB4, symBinAddr: 0x10000ED98, symSize: 0x24 }
  - { offsetInCU: 0x19A86, offset: 0x19A86, size: 0x8, addend: 0x0, symName: __ZNKSt3__122__compressed_pair_elemIP5NesboLi0ELb0EE5__getB8ue170006Ev, symObjAddr: 0xADD8, symBinAddr: 0x10000EDBC, symSize: 0x14 }
  - { offsetInCU: 0x19AAC, offset: 0x19AAC, size: 0x8, addend: 0x0, symName: __ZNSt3__16vectorI5NesboNS_9allocatorIS1_EEE9__end_capB8ue170006Ev, symObjAddr: 0xADEC, symBinAddr: 0x10000EDD0, symSize: 0x28 }
  - { offsetInCU: 0x19AD2, offset: 0x19AD2, size: 0x8, addend: 0x0, symName: __ZNSt3__16vectorI5NesboNS_9allocatorIS1_EEE22__construct_one_at_endB8ue170006IJRP5TTreeRmS9_S9_S9_EEEvDpOT_, symObjAddr: 0xAE14, symBinAddr: 0x10000EDF8, symSize: 0xB8 }
  - { offsetInCU: 0x19B71, offset: 0x19B71, size: 0x8, addend: 0x0, symName: __ZNSt3__16vectorI5NesboNS_9allocatorIS1_EEE24__emplace_back_slow_pathIJRP5TTreeRmS9_S9_S9_EEEvDpOT_, symObjAddr: 0xAECC, symBinAddr: 0x10000EEB0, symSize: 0x100 }
  - { offsetInCU: 0x19C21, offset: 0x19C21, size: 0x8, addend: 0x0, symName: __ZNSt3__117__compressed_pairIP5NesboNS_9allocatorIS1_EEE5firstB8ue170006Ev, symObjAddr: 0xAFCC, symBinAddr: 0x10000EFB0, symSize: 0x24 }
  - { offsetInCU: 0x19C47, offset: 0x19C47, size: 0x8, addend: 0x0, symName: __ZNSt3__122__compressed_pair_elemIP5NesboLi0ELb0EE5__getB8ue170006Ev, symObjAddr: 0xAFF0, symBinAddr: 0x10000EFD4, symSize: 0x14 }
  - { offsetInCU: 0x19C86, offset: 0x19C86, size: 0x8, addend: 0x0, symName: __ZNSt3__16vectorI5NesboNS_9allocatorIS1_EEE21_ConstructTransactionC1B8ue170006ERS4_m, symObjAddr: 0xB004, symBinAddr: 0x10000EFE8, symSize: 0x3C }
  - { offsetInCU: 0x19CCE, offset: 0x19CCE, size: 0x8, addend: 0x0, symName: __ZNSt3__116allocator_traitsINS_9allocatorI5NesboEEE9constructB8ue170006IS2_JRP5TTreeRmS9_S9_S9_EvEEvRS3_PT_DpOT0_, symObjAddr: 0xB040, symBinAddr: 0x10000F024, symSize: 0x54 }
  - { offsetInCU: 0x19D75, offset: 0x19D75, size: 0x8, addend: 0x0, symName: __ZNSt3__16vectorI5NesboNS_9allocatorIS1_EEE21_ConstructTransactionD1B8ue170006Ev, symObjAddr: 0xB094, symBinAddr: 0x10000F078, symSize: 0x2C }
  - { offsetInCU: 0x19D9F, offset: 0x19D9F, size: 0x8, addend: 0x0, symName: __ZNSt3__16vectorI5NesboNS_9allocatorIS1_EEE21_ConstructTransactionC2B8ue170006ERS4_m, symObjAddr: 0xB0C0, symBinAddr: 0x10000F0A4, symSize: 0x4C }
  - { offsetInCU: 0x19DE7, offset: 0x19DE7, size: 0x8, addend: 0x0, symName: __ZNSt3__19allocatorI5NesboE9constructB8ue170006IS1_JRP5TTreeRmS7_S7_S7_EEEvPT_DpOT0_, symObjAddr: 0xB10C, symBinAddr: 0x10000F0F0, symSize: 0x64 }
  - { offsetInCU: 0x19E89, offset: 0x19E89, size: 0x8, addend: 0x0, symName: __ZN5NesboC1EP5TTreemmmm, symObjAddr: 0xB170, symBinAddr: 0x10000F154, symSize: 0x54 }
  - { offsetInCU: 0x19EF9, offset: 0x19EF9, size: 0x8, addend: 0x0, symName: __ZN5NesboC2EP5TTreemmmm, symObjAddr: 0xB1C4, symBinAddr: 0x10000F1A8, symSize: 0x50 }
  - { offsetInCU: 0x19F69, offset: 0x19F69, size: 0x8, addend: 0x0, symName: __ZNSt3__16vectorI5NesboNS_9allocatorIS1_EEE21_ConstructTransactionD2B8ue170006Ev, symObjAddr: 0xB214, symBinAddr: 0x10000F1F8, symSize: 0x20 }
  - { offsetInCU: 0x19F93, offset: 0x19F93, size: 0x8, addend: 0x0, symName: __ZNKSt3__16vectorI5NesboNS_9allocatorIS1_EEE11__recommendB8ue170006Em, symObjAddr: 0xB234, symBinAddr: 0x10000F218, symSize: 0xB4 }
  - { offsetInCU: 0x19FE8, offset: 0x19FE8, size: 0x8, addend: 0x0, symName: __ZNSt3__114__split_bufferI5NesboRNS_9allocatorIS1_EEEC1EmmS4_, symObjAddr: 0xB2E8, symBinAddr: 0x10000F2CC, symSize: 0x44 }
  - { offsetInCU: 0x1A03E, offset: 0x1A03E, size: 0x8, addend: 0x0, symName: __ZNSt3__114__split_bufferI5NesboRNS_9allocatorIS1_EEED1Ev, symObjAddr: 0xB43C, symBinAddr: 0x10000F420, symSize: 0x2C }
  - { offsetInCU: 0x1A06A, offset: 0x1A06A, size: 0x8, addend: 0x0, symName: __ZNKSt3__16vectorI5NesboNS_9allocatorIS1_EEE8max_sizeEv, symObjAddr: 0xB468, symBinAddr: 0x10000F44C, symSize: 0x74 }
  - { offsetInCU: 0x1A092, offset: 0x1A092, size: 0x8, addend: 0x0, symName: __ZNKSt3__16vectorI5NesboNS_9allocatorIS1_EEE20__throw_length_errorB8ue170006Ev, symObjAddr: 0xB4DC, symBinAddr: 0x10000F4C0, symSize: 0x1C }
  - { offsetInCU: 0x1A0C2, offset: 0x1A0C2, size: 0x8, addend: 0x0, symName: __ZNSt3__116allocator_traitsINS_9allocatorI5NesboEEE8max_sizeB8ue170006IS3_vEEmRKS3_, symObjAddr: 0xB550, symBinAddr: 0x10000F534, symSize: 0x24 }
  - { offsetInCU: 0x1A0F0, offset: 0x1A0F0, size: 0x8, addend: 0x0, symName: __ZNKSt3__16vectorI5NesboNS_9allocatorIS1_EEE7__allocB8ue170006Ev, symObjAddr: 0xB574, symBinAddr: 0x10000F558, symSize: 0x28 }
  - { offsetInCU: 0x1A116, offset: 0x1A116, size: 0x8, addend: 0x0, symName: __ZNSt3__114numeric_limitsIlE3maxB8ue170006Ev, symObjAddr: 0xB59C, symBinAddr: 0x10000F580, symSize: 0x14 }
  - { offsetInCU: 0x1A134, offset: 0x1A134, size: 0x8, addend: 0x0, symName: __ZNKSt3__16__lessIvvEclB8ue170006ImmEEbRKT_RKT0_, symObjAddr: 0xB604, symBinAddr: 0x10000F5E8, symSize: 0x34 }
  - { offsetInCU: 0x1A188, offset: 0x1A188, size: 0x8, addend: 0x0, symName: __ZNKSt3__19allocatorI5NesboE8max_sizeB8ue170006Ev, symObjAddr: 0xB638, symBinAddr: 0x10000F61C, symSize: 0x18 }
  - { offsetInCU: 0x1A1AE, offset: 0x1A1AE, size: 0x8, addend: 0x0, symName: __ZNKSt3__117__compressed_pairIP5NesboNS_9allocatorIS1_EEE6secondB8ue170006Ev, symObjAddr: 0xB650, symBinAddr: 0x10000F634, symSize: 0x24 }
  - { offsetInCU: 0x1A1D4, offset: 0x1A1D4, size: 0x8, addend: 0x0, symName: __ZNKSt3__122__compressed_pair_elemINS_9allocatorI5NesboEELi1ELb1EE5__getB8ue170006Ev, symObjAddr: 0xB674, symBinAddr: 0x10000F658, symSize: 0x14 }
  - { offsetInCU: 0x1A1FA, offset: 0x1A1FA, size: 0x8, addend: 0x0, symName: __ZNSt3__123__libcpp_numeric_limitsIlLb1EE3maxB8ue170006Ev, symObjAddr: 0xB688, symBinAddr: 0x10000F66C, symSize: 0x8 }
  - { offsetInCU: 0x1A20E, offset: 0x1A20E, size: 0x8, addend: 0x0, symName: __ZNSt12length_errorC1B8ue170006EPKc, symObjAddr: 0xB6F4, symBinAddr: 0x10000F6D8, symSize: 0x34 }
  - { offsetInCU: 0x1A246, offset: 0x1A246, size: 0x8, addend: 0x0, symName: __ZNSt12length_errorC2B8ue170006EPKc, symObjAddr: 0xB728, symBinAddr: 0x10000F70C, symSize: 0x4C }
  - { offsetInCU: 0x1A27E, offset: 0x1A27E, size: 0x8, addend: 0x0, symName: __ZNSt3__114__split_bufferI5NesboRNS_9allocatorIS1_EEEC2EmmS4_, symObjAddr: 0xB7C8, symBinAddr: 0x10000F7AC, symSize: 0xE0 }
  - { offsetInCU: 0x1A2F7, offset: 0x1A2F7, size: 0x8, addend: 0x0, symName: __ZNSt3__117__compressed_pairIP5NesboRNS_9allocatorIS1_EEEC1B8ue170006IDnS5_EEOT_OT0_, symObjAddr: 0xB8A8, symBinAddr: 0x10000F88C, symSize: 0x3C }
  - { offsetInCU: 0x1A34F, offset: 0x1A34F, size: 0x8, addend: 0x0, symName: __ZNSt3__114__split_bufferI5NesboRNS_9allocatorIS1_EEE7__allocB8ue170006Ev, symObjAddr: 0xB924, symBinAddr: 0x10000F908, symSize: 0x28 }
  - { offsetInCU: 0x1A375, offset: 0x1A375, size: 0x8, addend: 0x0, symName: __ZNSt3__114__split_bufferI5NesboRNS_9allocatorIS1_EEE9__end_capB8ue170006Ev, symObjAddr: 0xB94C, symBinAddr: 0x10000F930, symSize: 0x28 }
  - { offsetInCU: 0x1A39B, offset: 0x1A39B, size: 0x8, addend: 0x0, symName: __ZNSt3__117__compressed_pairIP5NesboRNS_9allocatorIS1_EEEC2B8ue170006IDnS5_EEOT_OT0_, symObjAddr: 0xB974, symBinAddr: 0x10000F958, symSize: 0x48 }
  - { offsetInCU: 0x1A3F3, offset: 0x1A3F3, size: 0x8, addend: 0x0, symName: __ZNSt3__122__compressed_pair_elemIP5NesboLi0ELb0EEC2B8ue170006IDnvEEOT_, symObjAddr: 0xB9BC, symBinAddr: 0x10000F9A0, symSize: 0x1C }
  - { offsetInCU: 0x1A435, offset: 0x1A435, size: 0x8, addend: 0x0, symName: __ZNSt3__122__compressed_pair_elemIRNS_9allocatorI5NesboEELi1ELb0EEC2B8ue170006IS4_vEEOT_, symObjAddr: 0xB9D8, symBinAddr: 0x10000F9BC, symSize: 0x20 }
  - { offsetInCU: 0x1A477, offset: 0x1A477, size: 0x8, addend: 0x0, symName: __ZNSt3__19allocatorI5NesboE8allocateB8ue170006Em, symObjAddr: 0xB9F8, symBinAddr: 0x10000F9DC, symSize: 0x8C }
  - { offsetInCU: 0x1A4AB, offset: 0x1A4AB, size: 0x8, addend: 0x0, symName: __ZNSt3__117__compressed_pairIP5NesboRNS_9allocatorIS1_EEE6secondB8ue170006Ev, symObjAddr: 0xBB10, symBinAddr: 0x10000FAF4, symSize: 0x28 }
  - { offsetInCU: 0x1A4D1, offset: 0x1A4D1, size: 0x8, addend: 0x0, symName: __ZNSt3__122__compressed_pair_elemIRNS_9allocatorI5NesboEELi1ELb0EE5__getB8ue170006Ev, symObjAddr: 0xBB38, symBinAddr: 0x10000FB1C, symSize: 0x18 }
  - { offsetInCU: 0x1A4F7, offset: 0x1A4F7, size: 0x8, addend: 0x0, symName: __ZNSt3__117__compressed_pairIP5NesboRNS_9allocatorIS1_EEE5firstB8ue170006Ev, symObjAddr: 0xBB50, symBinAddr: 0x10000FB34, symSize: 0x24 }
  - { offsetInCU: 0x1A51D, offset: 0x1A51D, size: 0x8, addend: 0x0, symName: __ZNKSt3__16vectorI5NesboNS_9allocatorIS1_EEE17__annotate_deleteB8ue170006Ev, symObjAddr: 0xBB74, symBinAddr: 0x10000FB58, symSize: 0xD4 }
  - { offsetInCU: 0x1A543, offset: 0x1A543, size: 0x8, addend: 0x0, symName: __ZNSt3__116reverse_iteratorIP5NesboEC1B8ue170006ES2_, symObjAddr: 0xBD30, symBinAddr: 0x10000FD14, symSize: 0x34 }
  - { offsetInCU: 0x1A57B, offset: 0x1A57B, size: 0x8, addend: 0x0, symName: __ZNKSt3__116reverse_iteratorIP5NesboE4baseB8ue170006Ev, symObjAddr: 0xBD64, symBinAddr: 0x10000FD48, symSize: 0x18 }
  - { offsetInCU: 0x1A5A1, offset: 0x1A5A1, size: 0x8, addend: 0x0, symName: __ZNKSt3__16vectorI5NesboNS_9allocatorIS1_EEE14__annotate_newB8ue170006Em, symObjAddr: 0xBDB8, symBinAddr: 0x10000FD9C, symSize: 0xC8 }
  - { offsetInCU: 0x1A5D6, offset: 0x1A5D6, size: 0x8, addend: 0x0, symName: __ZNKSt3__116reverse_iteratorIP5NesboEdeB8ue170006Ev, symObjAddr: 0xBF2C, symBinAddr: 0x10000FF10, symSize: 0x28 }
  - { offsetInCU: 0x1A60A, offset: 0x1A60A, size: 0x8, addend: 0x0, symName: __ZNSt3__116reverse_iteratorIP5NesboEppB8ue170006Ev, symObjAddr: 0xBF54, symBinAddr: 0x10000FF38, symSize: 0x20 }
  - { offsetInCU: 0x1A635, offset: 0x1A635, size: 0x8, addend: 0x0, symName: __ZNSt3__119__to_address_helperINS_16reverse_iteratorIP5NesboEEvE6__callB8ue170006ERKS4_, symObjAddr: 0xBFEC, symBinAddr: 0x10000FFD0, symSize: 0x4C }
  - { offsetInCU: 0x1A658, offset: 0x1A658, size: 0x8, addend: 0x0, symName: __ZNKSt3__116reverse_iteratorIP5NesboEptB8ue170006Ev, symObjAddr: 0xC038, symBinAddr: 0x10001001C, symSize: 0x24 }
  - { offsetInCU: 0x1A6A2, offset: 0x1A6A2, size: 0x8, addend: 0x0, symName: __ZNKSt3__111__move_loopINS_17_ClassicAlgPolicyEEclB8ue170006INS_16reverse_iteratorIP5NesboEES7_S7_EENS_4pairIT_T1_EES9_T0_SA_, symObjAddr: 0xC2D4, symBinAddr: 0x1000102B8, symSize: 0x9C }
  - { offsetInCU: 0x1A713, offset: 0x1A713, size: 0x8, addend: 0x0, symName: __ZNSt3__18_IterOpsINS_17_ClassicAlgPolicyEE11__iter_moveB8ue170006IRNS_16reverse_iteratorIP5NesboEEEENS_9enable_ifIXsr12is_referenceIDTdeclsr3stdE7declvalIRT_EEEEE5valueEDTclsr3stdE4movedeclsr3stdE7declvalISB_EEEEE4typeEOSA_, symObjAddr: 0xC4D0, symBinAddr: 0x1000104B4, symSize: 0x28 }
  - { offsetInCU: 0x1A73F, offset: 0x1A73F, size: 0x8, addend: 0x0, symName: __ZNSt3__18_IterOpsINS_17_ClassicAlgPolicyEE25__validate_iter_referenceB8ue170006IRNS_16reverse_iteratorIP5NesboEEEEvv, symObjAddr: 0xC4F8, symBinAddr: 0x1000104DC, symSize: 0x4 }
  - { offsetInCU: 0x1A75D, offset: 0x1A75D, size: 0x8, addend: 0x0, symName: __ZNSt3__118__unwrap_iter_implINS_16reverse_iteratorIP5NesboEELb0EE8__unwrapB8ue170006ES4_, symObjAddr: 0xC4FC, symBinAddr: 0x1000104E0, symSize: 0x24 }
  - { offsetInCU: 0x1A780, offset: 0x1A780, size: 0x8, addend: 0x0, symName: __ZNSt3__14pairINS_16reverse_iteratorIP5NesboEES4_EC1B8ue170006ERKS4_S7_, symObjAddr: 0xC520, symBinAddr: 0x100010504, symSize: 0x3C }
  - { offsetInCU: 0x1A7C6, offset: 0x1A7C6, size: 0x8, addend: 0x0, symName: __ZNSt3__14pairINS_16reverse_iteratorIP5NesboEES4_EC2B8ue170006ERKS4_S7_, symObjAddr: 0xC55C, symBinAddr: 0x100010540, symSize: 0x34 }
  - { offsetInCU: 0x1A80C, offset: 0x1A80C, size: 0x8, addend: 0x0, symName: __ZNSt3__118__unwrap_iter_implINS_16reverse_iteratorIP5NesboEELb0EE8__rewrapB8ue170006ES4_S4_, symObjAddr: 0xC590, symBinAddr: 0x100010574, symSize: 0x2C }
  - { offsetInCU: 0x1A83A, offset: 0x1A83A, size: 0x8, addend: 0x0, symName: __ZNSt3__116reverse_iteratorIP5NesboEC2B8ue170006ES2_, symObjAddr: 0xC5BC, symBinAddr: 0x1000105A0, symSize: 0x28 }
  - { offsetInCU: 0x1A872, offset: 0x1A872, size: 0x8, addend: 0x0, symName: __ZNSt3__114__split_bufferI5NesboRNS_9allocatorIS1_EEED2Ev, symObjAddr: 0xC5E4, symBinAddr: 0x1000105C8, symSize: 0x80 }
  - { offsetInCU: 0x1A89E, offset: 0x1A89E, size: 0x8, addend: 0x0, symName: __ZNSt3__114__split_bufferI5NesboRNS_9allocatorIS1_EEE5clearB8ue170006Ev, symObjAddr: 0xC664, symBinAddr: 0x100010648, symSize: 0x28 }
  - { offsetInCU: 0x1A8C4, offset: 0x1A8C4, size: 0x8, addend: 0x0, symName: __ZNSt3__116allocator_traitsINS_9allocatorI5NesboEEE10deallocateB8ue170006ERS3_PS2_m, symObjAddr: 0xC68C, symBinAddr: 0x100010670, symSize: 0x34 }
  - { offsetInCU: 0x1A906, offset: 0x1A906, size: 0x8, addend: 0x0, symName: __ZNKSt3__114__split_bufferI5NesboRNS_9allocatorIS1_EEE8capacityB8ue170006Ev, symObjAddr: 0xC6C0, symBinAddr: 0x1000106A4, symSize: 0x40 }
  - { offsetInCU: 0x1A92C, offset: 0x1A92C, size: 0x8, addend: 0x0, symName: __ZNSt3__114__split_bufferI5NesboRNS_9allocatorIS1_EEE17__destruct_at_endB8ue170006EPS1_, symObjAddr: 0xC700, symBinAddr: 0x1000106E4, symSize: 0x2C }
  - { offsetInCU: 0x1A960, offset: 0x1A960, size: 0x8, addend: 0x0, symName: __ZNSt3__114__split_bufferI5NesboRNS_9allocatorIS1_EEE17__destruct_at_endB8ue170006EPS1_NS_17integral_constantIbLb0EEE, symObjAddr: 0xC72C, symBinAddr: 0x100010710, symSize: 0x94 }
  - { offsetInCU: 0x1A9A1, offset: 0x1A9A1, size: 0x8, addend: 0x0, symName: __ZNSt3__19allocatorI5NesboE10deallocateB8ue170006EPS1_m, symObjAddr: 0xC7C0, symBinAddr: 0x1000107A4, symSize: 0x74 }
  - { offsetInCU: 0x1A9E3, offset: 0x1A9E3, size: 0x8, addend: 0x0, symName: __ZNKSt3__114__split_bufferI5NesboRNS_9allocatorIS1_EEE9__end_capB8ue170006Ev, symObjAddr: 0xC8B0, symBinAddr: 0x100010894, symSize: 0x28 }
  - { offsetInCU: 0x1AA09, offset: 0x1AA09, size: 0x8, addend: 0x0, symName: __ZNKSt3__117__compressed_pairIP5NesboRNS_9allocatorIS1_EEE5firstB8ue170006Ev, symObjAddr: 0xC8D8, symBinAddr: 0x1000108BC, symSize: 0x24 }
  - { offsetInCU: 0x1AA2F, offset: 0x1AA2F, size: 0x8, addend: 0x0, symName: __ZNSt3__16vectorI5NesboNS_9allocatorIS1_EEE11__make_iterB8ue170006EPS1_, symObjAddr: 0xC8FC, symBinAddr: 0x1000108E0, symSize: 0x30 }
  - { offsetInCU: 0x1AA64, offset: 0x1AA64, size: 0x8, addend: 0x0, symName: __ZNSt3__111__wrap_iterIP5NesboEC1B8ue170006ES2_, symObjAddr: 0xC92C, symBinAddr: 0x100010910, symSize: 0x34 }
  - { offsetInCU: 0x1AA9C, offset: 0x1AA9C, size: 0x8, addend: 0x0, symName: __ZNSt3__111__wrap_iterIP5NesboEC2B8ue170006ES2_, symObjAddr: 0xC960, symBinAddr: 0x100010944, symSize: 0x20 }
  - { offsetInCU: 0x1AAD4, offset: 0x1AAD4, size: 0x8, addend: 0x0, symName: __ZNKSt3__111__wrap_iterIP5NesboE4baseB8ue170006Ev, symObjAddr: 0xC9C8, symBinAddr: 0x1000109AC, symSize: 0x18 }
  - { offsetInCU: 0x1AAFA, offset: 0x1AAFA, size: 0x8, addend: 0x0, symName: __ZNSt3__16vectorI6LNesboNS_9allocatorIS1_EEE17__destruct_at_endB8ue170006EPS1_, symObjAddr: 0xC9E0, symBinAddr: 0x1000109C4, symSize: 0x4C }
  - { offsetInCU: 0x1AB3E, offset: 0x1AB3E, size: 0x8, addend: 0x0, symName: __ZNSt3__16vectorI6LNesboNS_9allocatorIS1_EEE22__base_destruct_at_endB8ue170006EPS1_, symObjAddr: 0xCA2C, symBinAddr: 0x100010A10, symSize: 0xA0 }
  - { offsetInCU: 0x1AB82, offset: 0x1AB82, size: 0x8, addend: 0x0, symName: __ZNKSt3__16vectorI6LNesboNS_9allocatorIS1_EEE17__annotate_shrinkB8ue170006Em, symObjAddr: 0xCACC, symBinAddr: 0x100010AB0, symSize: 0xB4 }
  - { offsetInCU: 0x1ABB7, offset: 0x1ABB7, size: 0x8, addend: 0x0, symName: __ZNSt3__116allocator_traitsINS_9allocatorI6LNesboEEE7destroyB8ue170006IS2_vEEvRS3_PT_, symObjAddr: 0xCB80, symBinAddr: 0x100010B64, symSize: 0x2C }
  - { offsetInCU: 0x1ABF4, offset: 0x1ABF4, size: 0x8, addend: 0x0, symName: __ZNSt3__16vectorI6LNesboNS_9allocatorIS1_EEE7__allocB8ue170006Ev, symObjAddr: 0xCBAC, symBinAddr: 0x100010B90, symSize: 0x28 }
  - { offsetInCU: 0x1AC1A, offset: 0x1AC1A, size: 0x8, addend: 0x0, symName: __ZNSt3__19allocatorI6LNesboE7destroyB8ue170006EPS1_, symObjAddr: 0xCBE8, symBinAddr: 0x100010BCC, symSize: 0x14 }
  - { offsetInCU: 0x1AC4E, offset: 0x1AC4E, size: 0x8, addend: 0x0, symName: __ZNSt3__117__compressed_pairIP6LNesboNS_9allocatorIS1_EEE6secondB8ue170006Ev, symObjAddr: 0xCBFC, symBinAddr: 0x100010BE0, symSize: 0x24 }
  - { offsetInCU: 0x1AC74, offset: 0x1AC74, size: 0x8, addend: 0x0, symName: __ZNSt3__122__compressed_pair_elemINS_9allocatorI6LNesboEELi1ELb1EE5__getB8ue170006Ev, symObjAddr: 0xCC20, symBinAddr: 0x100010C04, symSize: 0x14 }
  - { offsetInCU: 0x1AC9A, offset: 0x1AC9A, size: 0x8, addend: 0x0, symName: __ZNKSt3__16vectorI6LNesboNS_9allocatorIS1_EEE31__annotate_contiguous_containerB8ue170006EPKvS6_S6_S6_, symObjAddr: 0xCC34, symBinAddr: 0x100010C18, symSize: 0x20 }
  - { offsetInCU: 0x1ACEC, offset: 0x1ACEC, size: 0x8, addend: 0x0, symName: __ZNKSt3__16vectorI6LNesboNS_9allocatorIS1_EEE4dataB8ue170006Ev, symObjAddr: 0xCC54, symBinAddr: 0x100010C38, symSize: 0x28 }
  - { offsetInCU: 0x1AD12, offset: 0x1AD12, size: 0x8, addend: 0x0, symName: __ZNKSt3__16vectorI6LNesboNS_9allocatorIS1_EEE8capacityB8ue170006Ev, symObjAddr: 0xCC7C, symBinAddr: 0x100010C60, symSize: 0x40 }
  - { offsetInCU: 0x1AD38, offset: 0x1AD38, size: 0x8, addend: 0x0, symName: __ZNKSt3__16vectorI6LNesboNS_9allocatorIS1_EEE9__end_capB8ue170006Ev, symObjAddr: 0xCCBC, symBinAddr: 0x100010CA0, symSize: 0x28 }
  - { offsetInCU: 0x1AD5E, offset: 0x1AD5E, size: 0x8, addend: 0x0, symName: __ZNKSt3__117__compressed_pairIP6LNesboNS_9allocatorIS1_EEE5firstB8ue170006Ev, symObjAddr: 0xCCE4, symBinAddr: 0x100010CC8, symSize: 0x24 }
  - { offsetInCU: 0x1AD84, offset: 0x1AD84, size: 0x8, addend: 0x0, symName: __ZNKSt3__122__compressed_pair_elemIP6LNesboLi0ELb0EE5__getB8ue170006Ev, symObjAddr: 0xCD08, symBinAddr: 0x100010CEC, symSize: 0x14 }
  - { offsetInCU: 0x1ADAA, offset: 0x1ADAA, size: 0x8, addend: 0x0, symName: __ZNSt3__16vectorI6LNesboNS_9allocatorIS1_EEE9__end_capB8ue170006Ev, symObjAddr: 0xCD1C, symBinAddr: 0x100010D00, symSize: 0x28 }
  - { offsetInCU: 0x1ADD0, offset: 0x1ADD0, size: 0x8, addend: 0x0, symName: __ZNSt3__16vectorI6LNesboNS_9allocatorIS1_EEE22__construct_one_at_endB8ue170006IJRP5LTreeRmS9_S9_EEEvDpOT_, symObjAddr: 0xCD44, symBinAddr: 0x100010D28, symSize: 0xB0 }
  - { offsetInCU: 0x1AE5B, offset: 0x1AE5B, size: 0x8, addend: 0x0, symName: __ZNSt3__16vectorI6LNesboNS_9allocatorIS1_EEE24__emplace_back_slow_pathIJRP5LTreeRmS9_S9_EEEvDpOT_, symObjAddr: 0xCDF4, symBinAddr: 0x100010DD8, symSize: 0xF8 }
  - { offsetInCU: 0x1AEF7, offset: 0x1AEF7, size: 0x8, addend: 0x0, symName: __ZNSt3__117__compressed_pairIP6LNesboNS_9allocatorIS1_EEE5firstB8ue170006Ev, symObjAddr: 0xCEEC, symBinAddr: 0x100010ED0, symSize: 0x24 }
  - { offsetInCU: 0x1AF1D, offset: 0x1AF1D, size: 0x8, addend: 0x0, symName: __ZNSt3__122__compressed_pair_elemIP6LNesboLi0ELb0EE5__getB8ue170006Ev, symObjAddr: 0xCF10, symBinAddr: 0x100010EF4, symSize: 0x14 }
  - { offsetInCU: 0x1AF5C, offset: 0x1AF5C, size: 0x8, addend: 0x0, symName: __ZNSt3__16vectorI6LNesboNS_9allocatorIS1_EEE21_ConstructTransactionC1B8ue170006ERS4_m, symObjAddr: 0xCF24, symBinAddr: 0x100010F08, symSize: 0x3C }
  - { offsetInCU: 0x1AFA4, offset: 0x1AFA4, size: 0x8, addend: 0x0, symName: __ZNSt3__116allocator_traitsINS_9allocatorI6LNesboEEE9constructB8ue170006IS2_JRP5LTreeRmS9_S9_EvEEvRS3_PT_DpOT0_, symObjAddr: 0xCF60, symBinAddr: 0x100010F44, symSize: 0x4C }
  - { offsetInCU: 0x1B037, offset: 0x1B037, size: 0x8, addend: 0x0, symName: __ZNSt3__16vectorI6LNesboNS_9allocatorIS1_EEE21_ConstructTransactionD1B8ue170006Ev, symObjAddr: 0xCFAC, symBinAddr: 0x100010F90, symSize: 0x2C }
  - { offsetInCU: 0x1B061, offset: 0x1B061, size: 0x8, addend: 0x0, symName: __ZNSt3__16vectorI6LNesboNS_9allocatorIS1_EEE21_ConstructTransactionC2B8ue170006ERS4_m, symObjAddr: 0xCFD8, symBinAddr: 0x100010FBC, symSize: 0x44 }
  - { offsetInCU: 0x1B0A9, offset: 0x1B0A9, size: 0x8, addend: 0x0, symName: __ZNSt3__19allocatorI6LNesboE9constructB8ue170006IS1_JRP5LTreeRmS7_S7_EEEvPT_DpOT0_, symObjAddr: 0xD01C, symBinAddr: 0x100011000, symSize: 0x58 }
  - { offsetInCU: 0x1B138, offset: 0x1B138, size: 0x8, addend: 0x0, symName: __ZN6LNesboC1EP5LTreemmm, symObjAddr: 0xD074, symBinAddr: 0x100011058, symSize: 0x4C }
  - { offsetInCU: 0x1B19A, offset: 0x1B19A, size: 0x8, addend: 0x0, symName: __ZN6LNesboC2EP5LTreemmm, symObjAddr: 0xD0C0, symBinAddr: 0x1000110A4, symSize: 0x44 }
  - { offsetInCU: 0x1B1FC, offset: 0x1B1FC, size: 0x8, addend: 0x0, symName: __ZNSt3__16vectorI6LNesboNS_9allocatorIS1_EEE21_ConstructTransactionD2B8ue170006Ev, symObjAddr: 0xD104, symBinAddr: 0x1000110E8, symSize: 0x20 }
  - { offsetInCU: 0x1B226, offset: 0x1B226, size: 0x8, addend: 0x0, symName: __ZNKSt3__16vectorI6LNesboNS_9allocatorIS1_EEE11__recommendB8ue170006Em, symObjAddr: 0xD124, symBinAddr: 0x100011108, symSize: 0xB4 }
  - { offsetInCU: 0x1B27B, offset: 0x1B27B, size: 0x8, addend: 0x0, symName: __ZNSt3__114__split_bufferI6LNesboRNS_9allocatorIS1_EEEC1EmmS4_, symObjAddr: 0xD1D8, symBinAddr: 0x1000111BC, symSize: 0x44 }
  - { offsetInCU: 0x1B2D1, offset: 0x1B2D1, size: 0x8, addend: 0x0, symName: __ZNSt3__114__split_bufferI6LNesboRNS_9allocatorIS1_EEED1Ev, symObjAddr: 0xD32C, symBinAddr: 0x100011310, symSize: 0x2C }
  - { offsetInCU: 0x1B2FD, offset: 0x1B2FD, size: 0x8, addend: 0x0, symName: __ZNKSt3__16vectorI6LNesboNS_9allocatorIS1_EEE8max_sizeEv, symObjAddr: 0xD358, symBinAddr: 0x10001133C, symSize: 0x74 }
  - { offsetInCU: 0x1B325, offset: 0x1B325, size: 0x8, addend: 0x0, symName: __ZNKSt3__16vectorI6LNesboNS_9allocatorIS1_EEE20__throw_length_errorB8ue170006Ev, symObjAddr: 0xD3CC, symBinAddr: 0x1000113B0, symSize: 0x1C }
  - { offsetInCU: 0x1B355, offset: 0x1B355, size: 0x8, addend: 0x0, symName: __ZNSt3__116allocator_traitsINS_9allocatorI6LNesboEEE8max_sizeB8ue170006IS3_vEEmRKS3_, symObjAddr: 0xD3E8, symBinAddr: 0x1000113CC, symSize: 0x24 }
  - { offsetInCU: 0x1B383, offset: 0x1B383, size: 0x8, addend: 0x0, symName: __ZNKSt3__16vectorI6LNesboNS_9allocatorIS1_EEE7__allocB8ue170006Ev, symObjAddr: 0xD40C, symBinAddr: 0x1000113F0, symSize: 0x28 }
  - { offsetInCU: 0x1B3A9, offset: 0x1B3A9, size: 0x8, addend: 0x0, symName: __ZNKSt3__19allocatorI6LNesboE8max_sizeB8ue170006Ev, symObjAddr: 0xD434, symBinAddr: 0x100011418, symSize: 0x14 }
  - { offsetInCU: 0x1B3CF, offset: 0x1B3CF, size: 0x8, addend: 0x0, symName: __ZNKSt3__117__compressed_pairIP6LNesboNS_9allocatorIS1_EEE6secondB8ue170006Ev, symObjAddr: 0xD448, symBinAddr: 0x10001142C, symSize: 0x24 }
  - { offsetInCU: 0x1B3F5, offset: 0x1B3F5, size: 0x8, addend: 0x0, symName: __ZNKSt3__122__compressed_pair_elemINS_9allocatorI6LNesboEELi1ELb1EE5__getB8ue170006Ev, symObjAddr: 0xD46C, symBinAddr: 0x100011450, symSize: 0x14 }
  - { offsetInCU: 0x1B41B, offset: 0x1B41B, size: 0x8, addend: 0x0, symName: __ZNSt3__114__split_bufferI6LNesboRNS_9allocatorIS1_EEEC2EmmS4_, symObjAddr: 0xD480, symBinAddr: 0x100011464, symSize: 0xD4 }
  - { offsetInCU: 0x1B48E, offset: 0x1B48E, size: 0x8, addend: 0x0, symName: __ZNSt3__117__compressed_pairIP6LNesboRNS_9allocatorIS1_EEEC1B8ue170006IDnS5_EEOT_OT0_, symObjAddr: 0xD554, symBinAddr: 0x100011538, symSize: 0x3C }
  - { offsetInCU: 0x1B4E6, offset: 0x1B4E6, size: 0x8, addend: 0x0, symName: __ZNSt3__114__split_bufferI6LNesboRNS_9allocatorIS1_EEE7__allocB8ue170006Ev, symObjAddr: 0xD5D0, symBinAddr: 0x1000115B4, symSize: 0x28 }
  - { offsetInCU: 0x1B50C, offset: 0x1B50C, size: 0x8, addend: 0x0, symName: __ZNSt3__114__split_bufferI6LNesboRNS_9allocatorIS1_EEE9__end_capB8ue170006Ev, symObjAddr: 0xD5F8, symBinAddr: 0x1000115DC, symSize: 0x28 }
  - { offsetInCU: 0x1B532, offset: 0x1B532, size: 0x8, addend: 0x0, symName: __ZNSt3__117__compressed_pairIP6LNesboRNS_9allocatorIS1_EEEC2B8ue170006IDnS5_EEOT_OT0_, symObjAddr: 0xD620, symBinAddr: 0x100011604, symSize: 0x48 }
  - { offsetInCU: 0x1B58A, offset: 0x1B58A, size: 0x8, addend: 0x0, symName: __ZNSt3__122__compressed_pair_elemIP6LNesboLi0ELb0EEC2B8ue170006IDnvEEOT_, symObjAddr: 0xD668, symBinAddr: 0x10001164C, symSize: 0x1C }
  - { offsetInCU: 0x1B5CC, offset: 0x1B5CC, size: 0x8, addend: 0x0, symName: __ZNSt3__122__compressed_pair_elemIRNS_9allocatorI6LNesboEELi1ELb0EEC2B8ue170006IS4_vEEOT_, symObjAddr: 0xD684, symBinAddr: 0x100011668, symSize: 0x20 }
  - { offsetInCU: 0x1B60E, offset: 0x1B60E, size: 0x8, addend: 0x0, symName: __ZNSt3__19allocatorI6LNesboE8allocateB8ue170006Em, symObjAddr: 0xD6A4, symBinAddr: 0x100011688, symSize: 0x84 }
  - { offsetInCU: 0x1B642, offset: 0x1B642, size: 0x8, addend: 0x0, symName: __ZNSt3__117__compressed_pairIP6LNesboRNS_9allocatorIS1_EEE6secondB8ue170006Ev, symObjAddr: 0xD728, symBinAddr: 0x10001170C, symSize: 0x28 }
  - { offsetInCU: 0x1B668, offset: 0x1B668, size: 0x8, addend: 0x0, symName: __ZNSt3__122__compressed_pair_elemIRNS_9allocatorI6LNesboEELi1ELb0EE5__getB8ue170006Ev, symObjAddr: 0xD750, symBinAddr: 0x100011734, symSize: 0x18 }
  - { offsetInCU: 0x1B68E, offset: 0x1B68E, size: 0x8, addend: 0x0, symName: __ZNSt3__117__compressed_pairIP6LNesboRNS_9allocatorIS1_EEE5firstB8ue170006Ev, symObjAddr: 0xD768, symBinAddr: 0x10001174C, symSize: 0x24 }
  - { offsetInCU: 0x1B6B4, offset: 0x1B6B4, size: 0x8, addend: 0x0, symName: __ZNKSt3__16vectorI6LNesboNS_9allocatorIS1_EEE17__annotate_deleteB8ue170006Ev, symObjAddr: 0xD78C, symBinAddr: 0x100011770, symSize: 0xB8 }
  - { offsetInCU: 0x1B6DA, offset: 0x1B6DA, size: 0x8, addend: 0x0, symName: __ZNSt3__116reverse_iteratorIP6LNesboEC1B8ue170006ES2_, symObjAddr: 0xD92C, symBinAddr: 0x100011910, symSize: 0x34 }
  - { offsetInCU: 0x1B712, offset: 0x1B712, size: 0x8, addend: 0x0, symName: __ZNKSt3__116reverse_iteratorIP6LNesboE4baseB8ue170006Ev, symObjAddr: 0xD960, symBinAddr: 0x100011944, symSize: 0x18 }
  - { offsetInCU: 0x1B738, offset: 0x1B738, size: 0x8, addend: 0x0, symName: __ZNKSt3__16vectorI6LNesboNS_9allocatorIS1_EEE14__annotate_newB8ue170006Em, symObjAddr: 0xD9B4, symBinAddr: 0x100011998, symSize: 0xAC }
  - { offsetInCU: 0x1B76D, offset: 0x1B76D, size: 0x8, addend: 0x0, symName: __ZNKSt3__116reverse_iteratorIP6LNesboEdeB8ue170006Ev, symObjAddr: 0xDB00, symBinAddr: 0x100011AE4, symSize: 0x28 }
  - { offsetInCU: 0x1B7A1, offset: 0x1B7A1, size: 0x8, addend: 0x0, symName: __ZNSt3__116reverse_iteratorIP6LNesboEppB8ue170006Ev, symObjAddr: 0xDB28, symBinAddr: 0x100011B0C, symSize: 0x20 }
  - { offsetInCU: 0x1B7CC, offset: 0x1B7CC, size: 0x8, addend: 0x0, symName: __ZNSt3__119__to_address_helperINS_16reverse_iteratorIP6LNesboEEvE6__callB8ue170006ERKS4_, symObjAddr: 0xDBC0, symBinAddr: 0x100011BA4, symSize: 0x4C }
  - { offsetInCU: 0x1B7EF, offset: 0x1B7EF, size: 0x8, addend: 0x0, symName: __ZNKSt3__116reverse_iteratorIP6LNesboEptB8ue170006Ev, symObjAddr: 0xDC0C, symBinAddr: 0x100011BF0, symSize: 0x24 }
  - { offsetInCU: 0x1B82F, offset: 0x1B82F, size: 0x8, addend: 0x0, symName: __ZNKSt3__111__move_loopINS_17_ClassicAlgPolicyEEclB8ue170006INS_16reverse_iteratorIP6LNesboEES7_S7_EENS_4pairIT_T1_EES9_T0_SA_, symObjAddr: 0xDEA8, symBinAddr: 0x100011E8C, symSize: 0xA8 }
  - { offsetInCU: 0x1B8A0, offset: 0x1B8A0, size: 0x8, addend: 0x0, symName: __ZNSt3__18_IterOpsINS_17_ClassicAlgPolicyEE11__iter_moveB8ue170006IRNS_16reverse_iteratorIP6LNesboEEEENS_9enable_ifIXsr12is_referenceIDTdeclsr3stdE7declvalIRT_EEEEE5valueEDTclsr3stdE4movedeclsr3stdE7declvalISB_EEEEE4typeEOSA_, symObjAddr: 0xE0B0, symBinAddr: 0x100012094, symSize: 0x28 }
  - { offsetInCU: 0x1B8CC, offset: 0x1B8CC, size: 0x8, addend: 0x0, symName: __ZNSt3__18_IterOpsINS_17_ClassicAlgPolicyEE25__validate_iter_referenceB8ue170006IRNS_16reverse_iteratorIP6LNesboEEEEvv, symObjAddr: 0xE0D8, symBinAddr: 0x1000120BC, symSize: 0x4 }
  - { offsetInCU: 0x1B8EA, offset: 0x1B8EA, size: 0x8, addend: 0x0, symName: __ZNSt3__118__unwrap_iter_implINS_16reverse_iteratorIP6LNesboEELb0EE8__unwrapB8ue170006ES4_, symObjAddr: 0xE0DC, symBinAddr: 0x1000120C0, symSize: 0x24 }
  - { offsetInCU: 0x1B90D, offset: 0x1B90D, size: 0x8, addend: 0x0, symName: __ZNSt3__14pairINS_16reverse_iteratorIP6LNesboEES4_EC1B8ue170006ERKS4_S7_, symObjAddr: 0xE100, symBinAddr: 0x1000120E4, symSize: 0x3C }
  - { offsetInCU: 0x1B953, offset: 0x1B953, size: 0x8, addend: 0x0, symName: __ZNSt3__14pairINS_16reverse_iteratorIP6LNesboEES4_EC2B8ue170006ERKS4_S7_, symObjAddr: 0xE13C, symBinAddr: 0x100012120, symSize: 0x34 }
  - { offsetInCU: 0x1B999, offset: 0x1B999, size: 0x8, addend: 0x0, symName: __ZNSt3__118__unwrap_iter_implINS_16reverse_iteratorIP6LNesboEELb0EE8__rewrapB8ue170006ES4_S4_, symObjAddr: 0xE170, symBinAddr: 0x100012154, symSize: 0x2C }
  - { offsetInCU: 0x1B9C7, offset: 0x1B9C7, size: 0x8, addend: 0x0, symName: __ZNSt3__116reverse_iteratorIP6LNesboEC2B8ue170006ES2_, symObjAddr: 0xE19C, symBinAddr: 0x100012180, symSize: 0x28 }
  - { offsetInCU: 0x1B9FF, offset: 0x1B9FF, size: 0x8, addend: 0x0, symName: __ZNSt3__114__split_bufferI6LNesboRNS_9allocatorIS1_EEED2Ev, symObjAddr: 0xE1C4, symBinAddr: 0x1000121A8, symSize: 0x80 }
  - { offsetInCU: 0x1BA2B, offset: 0x1BA2B, size: 0x8, addend: 0x0, symName: __ZNSt3__114__split_bufferI6LNesboRNS_9allocatorIS1_EEE5clearB8ue170006Ev, symObjAddr: 0xE244, symBinAddr: 0x100012228, symSize: 0x28 }
  - { offsetInCU: 0x1BA51, offset: 0x1BA51, size: 0x8, addend: 0x0, symName: __ZNSt3__116allocator_traitsINS_9allocatorI6LNesboEEE10deallocateB8ue170006ERS3_PS2_m, symObjAddr: 0xE26C, symBinAddr: 0x100012250, symSize: 0x34 }
  - { offsetInCU: 0x1BA93, offset: 0x1BA93, size: 0x8, addend: 0x0, symName: __ZNKSt3__114__split_bufferI6LNesboRNS_9allocatorIS1_EEE8capacityB8ue170006Ev, symObjAddr: 0xE2A0, symBinAddr: 0x100012284, symSize: 0x40 }
  - { offsetInCU: 0x1BAB9, offset: 0x1BAB9, size: 0x8, addend: 0x0, symName: __ZNSt3__114__split_bufferI6LNesboRNS_9allocatorIS1_EEE17__destruct_at_endB8ue170006EPS1_, symObjAddr: 0xE2E0, symBinAddr: 0x1000122C4, symSize: 0x2C }
  - { offsetInCU: 0x1BAED, offset: 0x1BAED, size: 0x8, addend: 0x0, symName: __ZNSt3__114__split_bufferI6LNesboRNS_9allocatorIS1_EEE17__destruct_at_endB8ue170006EPS1_NS_17integral_constantIbLb0EEE, symObjAddr: 0xE30C, symBinAddr: 0x1000122F0, symSize: 0x94 }
  - { offsetInCU: 0x1BB2E, offset: 0x1BB2E, size: 0x8, addend: 0x0, symName: __ZNSt3__19allocatorI6LNesboE10deallocateB8ue170006EPS1_m, symObjAddr: 0xE3A0, symBinAddr: 0x100012384, symSize: 0x70 }
  - { offsetInCU: 0x1BB70, offset: 0x1BB70, size: 0x8, addend: 0x0, symName: __ZNKSt3__114__split_bufferI6LNesboRNS_9allocatorIS1_EEE9__end_capB8ue170006Ev, symObjAddr: 0xE410, symBinAddr: 0x1000123F4, symSize: 0x28 }
  - { offsetInCU: 0x1BB96, offset: 0x1BB96, size: 0x8, addend: 0x0, symName: __ZNKSt3__117__compressed_pairIP6LNesboRNS_9allocatorIS1_EEE5firstB8ue170006Ev, symObjAddr: 0xE438, symBinAddr: 0x10001241C, symSize: 0x24 }
  - { offsetInCU: 0x1BBBC, offset: 0x1BBBC, size: 0x8, addend: 0x0, symName: __ZNSt3__16vectorImNS_9allocatorImEEEC2B8ue170006Ev, symObjAddr: 0xE45C, symBinAddr: 0x100012440, symSize: 0x44 }
  - { offsetInCU: 0x1BBEC, offset: 0x1BBEC, size: 0x8, addend: 0x0, symName: __ZNSt3__117__compressed_pairIPmNS_9allocatorImEEEC1B8ue170006IDnNS_18__default_init_tagEEEOT_OT0_, symObjAddr: 0xE4A0, symBinAddr: 0x100012484, symSize: 0x3C }
  - { offsetInCU: 0x1BC44, offset: 0x1BC44, size: 0x8, addend: 0x0, symName: __ZNSt3__117__compressed_pairIPmNS_9allocatorImEEEC2B8ue170006IDnNS_18__default_init_tagEEEOT_OT0_, symObjAddr: 0xE4DC, symBinAddr: 0x1000124C0, symSize: 0x40 }
  - { offsetInCU: 0x1BC9C, offset: 0x1BC9C, size: 0x8, addend: 0x0, symName: __ZNSt3__122__compressed_pair_elemIPmLi0ELb0EEC2B8ue170006IDnvEEOT_, symObjAddr: 0xE51C, symBinAddr: 0x100012500, symSize: 0x1C }
  - { offsetInCU: 0x1BCDE, offset: 0x1BCDE, size: 0x8, addend: 0x0, symName: __ZNSt3__122__compressed_pair_elemINS_9allocatorImEELi1ELb1EEC2B8ue170006ENS_18__default_init_tagE, symObjAddr: 0xE538, symBinAddr: 0x10001251C, symSize: 0x2C }
  - { offsetInCU: 0x1BD13, offset: 0x1BD13, size: 0x8, addend: 0x0, symName: __ZNSt3__19allocatorImEC2B8ue170006Ev, symObjAddr: 0xE564, symBinAddr: 0x100012548, symSize: 0x2C }
  - { offsetInCU: 0x1BD3D, offset: 0x1BD3D, size: 0x8, addend: 0x0, symName: __ZNSt3__116__non_trivial_ifILb1ENS_9allocatorImEEEC2B8ue170006Ev, symObjAddr: 0xE590, symBinAddr: 0x100012574, symSize: 0x14 }
  - { offsetInCU: 0x1BD67, offset: 0x1BD67, size: 0x8, addend: 0x0, symName: __ZNSt3__16vectorI5NesboNS_9allocatorIS1_EEEC2B8ue170006Ev, symObjAddr: 0xE5A4, symBinAddr: 0x100012588, symSize: 0x44 }
  - { offsetInCU: 0x1BD91, offset: 0x1BD91, size: 0x8, addend: 0x0, symName: __ZNSt3__117__compressed_pairIP5NesboNS_9allocatorIS1_EEEC1B8ue170006IDnNS_18__default_init_tagEEEOT_OT0_, symObjAddr: 0xE5E8, symBinAddr: 0x1000125CC, symSize: 0x3C }
  - { offsetInCU: 0x1BDE9, offset: 0x1BDE9, size: 0x8, addend: 0x0, symName: __ZNSt3__117__compressed_pairIP5NesboNS_9allocatorIS1_EEEC2B8ue170006IDnNS_18__default_init_tagEEEOT_OT0_, symObjAddr: 0xE624, symBinAddr: 0x100012608, symSize: 0x40 }
  - { offsetInCU: 0x1BE41, offset: 0x1BE41, size: 0x8, addend: 0x0, symName: __ZNSt3__122__compressed_pair_elemINS_9allocatorI5NesboEELi1ELb1EEC2B8ue170006ENS_18__default_init_tagE, symObjAddr: 0xE664, symBinAddr: 0x100012648, symSize: 0x2C }
  - { offsetInCU: 0x1BE76, offset: 0x1BE76, size: 0x8, addend: 0x0, symName: __ZNSt3__19allocatorI5NesboEC2B8ue170006Ev, symObjAddr: 0xE690, symBinAddr: 0x100012674, symSize: 0x2C }
  - { offsetInCU: 0x1BEA0, offset: 0x1BEA0, size: 0x8, addend: 0x0, symName: __ZNSt3__116__non_trivial_ifILb1ENS_9allocatorI5NesboEEEC2B8ue170006Ev, symObjAddr: 0xE6BC, symBinAddr: 0x1000126A0, symSize: 0x14 }
  - { offsetInCU: 0x1BECA, offset: 0x1BECA, size: 0x8, addend: 0x0, symName: __ZNSt3__16vectorI6LNesboNS_9allocatorIS1_EEEC2B8ue170006Ev, symObjAddr: 0xE6D0, symBinAddr: 0x1000126B4, symSize: 0x44 }
  - { offsetInCU: 0x1BEF4, offset: 0x1BEF4, size: 0x8, addend: 0x0, symName: __ZNSt3__117__compressed_pairIP6LNesboNS_9allocatorIS1_EEEC1B8ue170006IDnNS_18__default_init_tagEEEOT_OT0_, symObjAddr: 0xE714, symBinAddr: 0x1000126F8, symSize: 0x3C }
  - { offsetInCU: 0x1BF4C, offset: 0x1BF4C, size: 0x8, addend: 0x0, symName: __ZNSt3__117__compressed_pairIP6LNesboNS_9allocatorIS1_EEEC2B8ue170006IDnNS_18__default_init_tagEEEOT_OT0_, symObjAddr: 0xE750, symBinAddr: 0x100012734, symSize: 0x40 }
  - { offsetInCU: 0x1BFA4, offset: 0x1BFA4, size: 0x8, addend: 0x0, symName: __ZNSt3__122__compressed_pair_elemINS_9allocatorI6LNesboEELi1ELb1EEC2B8ue170006ENS_18__default_init_tagE, symObjAddr: 0xE790, symBinAddr: 0x100012774, symSize: 0x2C }
  - { offsetInCU: 0x1BFD9, offset: 0x1BFD9, size: 0x8, addend: 0x0, symName: __ZNSt3__19allocatorI6LNesboEC2B8ue170006Ev, symObjAddr: 0xE7BC, symBinAddr: 0x1000127A0, symSize: 0x2C }
  - { offsetInCU: 0x1C003, offset: 0x1C003, size: 0x8, addend: 0x0, symName: __ZNSt3__116__non_trivial_ifILb1ENS_9allocatorI6LNesboEEEC2B8ue170006Ev, symObjAddr: 0xE7E8, symBinAddr: 0x1000127CC, symSize: 0x14 }
  - { offsetInCU: 0x1C02D, offset: 0x1C02D, size: 0x8, addend: 0x0, symName: __ZNSt3__16vectorI5NesboNS_9allocatorIS1_EEED2B8ue170006Ev, symObjAddr: 0xE7FC, symBinAddr: 0x1000127E0, symSize: 0x3C }
  - { offsetInCU: 0x1C057, offset: 0x1C057, size: 0x8, addend: 0x0, symName: __ZNSt3__16vectorI5NesboNS_9allocatorIS1_EEE16__destroy_vectorC1B8ue170006ERS4_, symObjAddr: 0xE838, symBinAddr: 0x10001281C, symSize: 0x34 }
  - { offsetInCU: 0x1C090, offset: 0x1C090, size: 0x8, addend: 0x0, symName: __ZNSt3__16vectorI5NesboNS_9allocatorIS1_EEE16__destroy_vectorclB8ue170006Ev, symObjAddr: 0xE86C, symBinAddr: 0x100012850, symSize: 0x90 }
  - { offsetInCU: 0x1C0B6, offset: 0x1C0B6, size: 0x8, addend: 0x0, symName: __ZNSt3__16vectorI5NesboNS_9allocatorIS1_EEE16__destroy_vectorC2B8ue170006ERS4_, symObjAddr: 0xE8FC, symBinAddr: 0x1000128E0, symSize: 0x20 }
  - { offsetInCU: 0x1C0EF, offset: 0x1C0EF, size: 0x8, addend: 0x0, symName: __ZNSt3__16vectorI5NesboNS_9allocatorIS1_EEE7__clearB8ue170006Ev, symObjAddr: 0xE91C, symBinAddr: 0x100012900, symSize: 0x28 }
  - { offsetInCU: 0x1C115, offset: 0x1C115, size: 0x8, addend: 0x0, symName: __ZNSt3__16vectorI6LNesboNS_9allocatorIS1_EEED2B8ue170006Ev, symObjAddr: 0xE944, symBinAddr: 0x100012928, symSize: 0x3C }
  - { offsetInCU: 0x1C13F, offset: 0x1C13F, size: 0x8, addend: 0x0, symName: __ZNSt3__16vectorI6LNesboNS_9allocatorIS1_EEE16__destroy_vectorC1B8ue170006ERS4_, symObjAddr: 0xE980, symBinAddr: 0x100012964, symSize: 0x34 }
  - { offsetInCU: 0x1C178, offset: 0x1C178, size: 0x8, addend: 0x0, symName: __ZNSt3__16vectorI6LNesboNS_9allocatorIS1_EEE16__destroy_vectorclB8ue170006Ev, symObjAddr: 0xE9B4, symBinAddr: 0x100012998, symSize: 0x90 }
  - { offsetInCU: 0x1C19E, offset: 0x1C19E, size: 0x8, addend: 0x0, symName: __ZNSt3__16vectorI6LNesboNS_9allocatorIS1_EEE16__destroy_vectorC2B8ue170006ERS4_, symObjAddr: 0xEA44, symBinAddr: 0x100012A28, symSize: 0x20 }
  - { offsetInCU: 0x1C1D7, offset: 0x1C1D7, size: 0x8, addend: 0x0, symName: __ZNSt3__16vectorI6LNesboNS_9allocatorIS1_EEE7__clearB8ue170006Ev, symObjAddr: 0xEA64, symBinAddr: 0x100012A48, symSize: 0x28 }
  - { offsetInCU: 0x1C1FD, offset: 0x1C1FD, size: 0x8, addend: 0x0, symName: __ZNSt3__16vectorImNS_9allocatorImEEED2B8ue170006Ev, symObjAddr: 0xEA8C, symBinAddr: 0x100012A70, symSize: 0x3C }
  - { offsetInCU: 0x1C227, offset: 0x1C227, size: 0x8, addend: 0x0, symName: __ZNSt3__16vectorImNS_9allocatorImEEE16__destroy_vectorC1B8ue170006ERS3_, symObjAddr: 0xEAC8, symBinAddr: 0x100012AAC, symSize: 0x34 }
  - { offsetInCU: 0x1C260, offset: 0x1C260, size: 0x8, addend: 0x0, symName: __ZNSt3__16vectorImNS_9allocatorImEEE16__destroy_vectorclB8ue170006Ev, symObjAddr: 0xEAFC, symBinAddr: 0x100012AE0, symSize: 0x90 }
  - { offsetInCU: 0x1C286, offset: 0x1C286, size: 0x8, addend: 0x0, symName: __ZNSt3__16vectorImNS_9allocatorImEEE16__destroy_vectorC2B8ue170006ERS3_, symObjAddr: 0xEB8C, symBinAddr: 0x100012B70, symSize: 0x20 }
  - { offsetInCU: 0x1C2BF, offset: 0x1C2BF, size: 0x8, addend: 0x0, symName: __ZNSt3__16vectorImNS_9allocatorImEEE7__clearB8ue170006Ev, symObjAddr: 0xEBAC, symBinAddr: 0x100012B90, symSize: 0x28 }
  - { offsetInCU: 0x1C2E5, offset: 0x1C2E5, size: 0x8, addend: 0x0, symName: __ZNKSt3__16vectorImNS_9allocatorImEEE17__annotate_deleteB8ue170006Ev, symObjAddr: 0xEBD4, symBinAddr: 0x100012BB8, symSize: 0xB8 }
  - { offsetInCU: 0x1C30B, offset: 0x1C30B, size: 0x8, addend: 0x0, symName: __ZNSt3__116allocator_traitsINS_9allocatorImEEE10deallocateB8ue170006ERS2_Pmm, symObjAddr: 0xEC8C, symBinAddr: 0x100012C70, symSize: 0x34 }
  - { offsetInCU: 0x1C34D, offset: 0x1C34D, size: 0x8, addend: 0x0, symName: __ZNSt3__16vectorImNS_9allocatorImEEE7__allocB8ue170006Ev, symObjAddr: 0xECC0, symBinAddr: 0x100012CA4, symSize: 0x28 }
  - { offsetInCU: 0x1C373, offset: 0x1C373, size: 0x8, addend: 0x0, symName: __ZNKSt3__16vectorImNS_9allocatorImEEE8capacityB8ue170006Ev, symObjAddr: 0xECE8, symBinAddr: 0x100012CCC, symSize: 0x40 }
  - { offsetInCU: 0x1C399, offset: 0x1C399, size: 0x8, addend: 0x0, symName: __ZNSt3__16vectorImNS_9allocatorImEEE22__base_destruct_at_endB8ue170006EPm, symObjAddr: 0xED28, symBinAddr: 0x100012D0C, symSize: 0xA0 }
  - { offsetInCU: 0x1C3DD, offset: 0x1C3DD, size: 0x8, addend: 0x0, symName: __ZNSt3__116allocator_traitsINS_9allocatorImEEE7destroyB8ue170006ImvEEvRS2_PT_, symObjAddr: 0xEDC8, symBinAddr: 0x100012DAC, symSize: 0x2C }
  - { offsetInCU: 0x1C41A, offset: 0x1C41A, size: 0x8, addend: 0x0, symName: __ZNSt3__19allocatorImE7destroyB8ue170006EPm, symObjAddr: 0xEE08, symBinAddr: 0x100012DEC, symSize: 0x14 }
  - { offsetInCU: 0x1C44E, offset: 0x1C44E, size: 0x8, addend: 0x0, symName: __ZNKSt3__16vectorImNS_9allocatorImEEE31__annotate_contiguous_containerB8ue170006EPKvS5_S5_S5_, symObjAddr: 0xEE1C, symBinAddr: 0x100012E00, symSize: 0x20 }
  - { offsetInCU: 0x1C4A0, offset: 0x1C4A0, size: 0x8, addend: 0x0, symName: __ZNKSt3__16vectorImNS_9allocatorImEEE4dataB8ue170006Ev, symObjAddr: 0xEE3C, symBinAddr: 0x100012E20, symSize: 0x28 }
  - { offsetInCU: 0x1C4C6, offset: 0x1C4C6, size: 0x8, addend: 0x0, symName: __ZNSt3__19allocatorImE10deallocateB8ue170006EPmm, symObjAddr: 0xEE64, symBinAddr: 0x100012E48, symSize: 0x70 }
  - { offsetInCU: 0x1C508, offset: 0x1C508, size: 0x8, addend: 0x0, symName: __ZNSt3__117__compressed_pairIPmNS_9allocatorImEEE6secondB8ue170006Ev, symObjAddr: 0xEED4, symBinAddr: 0x100012EB8, symSize: 0x24 }
  - { offsetInCU: 0x1C52E, offset: 0x1C52E, size: 0x8, addend: 0x0, symName: __ZNSt3__122__compressed_pair_elemINS_9allocatorImEELi1ELb1EE5__getB8ue170006Ev, symObjAddr: 0xEEF8, symBinAddr: 0x100012EDC, symSize: 0x14 }
  - { offsetInCU: 0x1C554, offset: 0x1C554, size: 0x8, addend: 0x0, symName: __ZNKSt3__16vectorImNS_9allocatorImEEE9__end_capB8ue170006Ev, symObjAddr: 0xEF0C, symBinAddr: 0x100012EF0, symSize: 0x28 }
  - { offsetInCU: 0x1C57A, offset: 0x1C57A, size: 0x8, addend: 0x0, symName: __ZNKSt3__117__compressed_pairIPmNS_9allocatorImEEE5firstB8ue170006Ev, symObjAddr: 0xEF34, symBinAddr: 0x100012F18, symSize: 0x24 }
  - { offsetInCU: 0x1C5A0, offset: 0x1C5A0, size: 0x8, addend: 0x0, symName: __ZNKSt3__122__compressed_pair_elemIPmLi0ELb0EE5__getB8ue170006Ev, symObjAddr: 0xEF58, symBinAddr: 0x100012F3C, symSize: 0x14 }
  - { offsetInCU: 0x1C5C6, offset: 0x1C5C6, size: 0x8, addend: 0x0, symName: __ZNSt3__112basic_stringIcNS_11char_traitsIcEENS_9allocatorIcEEEC2B8ue170006ILi0EEEPKc, symObjAddr: 0xEF6C, symBinAddr: 0x100012F50, symSize: 0x58 }
  - { offsetInCU: 0x1C605, offset: 0x1C605, size: 0x8, addend: 0x0, symName: __ZNSt3__117__compressed_pairINS_12basic_stringIcNS_11char_traitsIcEENS_9allocatorIcEEE5__repES5_EC1B8ue170006INS_18__default_init_tagESA_EEOT_OT0_, symObjAddr: 0xEFC4, symBinAddr: 0x100012FA8, symSize: 0x3C }
  - { offsetInCU: 0x1C65D, offset: 0x1C65D, size: 0x8, addend: 0x0, symName: __ZNSt3__111char_traitsIcE6lengthB8ue170006EPKc, symObjAddr: 0xF000, symBinAddr: 0x100012FE4, symSize: 0x48 }
  - { offsetInCU: 0x1C680, offset: 0x1C680, size: 0x8, addend: 0x0, symName: __ZNSt3__117__compressed_pairINS_12basic_stringIcNS_11char_traitsIcEENS_9allocatorIcEEE5__repES5_EC2B8ue170006INS_18__default_init_tagESA_EEOT_OT0_, symObjAddr: 0xF048, symBinAddr: 0x10001302C, symSize: 0x3C }
  - { offsetInCU: 0x1C6D8, offset: 0x1C6D8, size: 0x8, addend: 0x0, symName: __ZNSt3__122__compressed_pair_elemINS_12basic_stringIcNS_11char_traitsIcEENS_9allocatorIcEEE5__repELi0ELb0EEC2B8ue170006ENS_18__default_init_tagE, symObjAddr: 0xF084, symBinAddr: 0x100013068, symSize: 0x14 }
  - { offsetInCU: 0x1C70D, offset: 0x1C70D, size: 0x8, addend: 0x0, symName: __ZNSt3__122__compressed_pair_elemINS_9allocatorIcEELi1ELb1EEC2B8ue170006ENS_18__default_init_tagE, symObjAddr: 0xF098, symBinAddr: 0x10001307C, symSize: 0x2C }
  - { offsetInCU: 0x1C742, offset: 0x1C742, size: 0x8, addend: 0x0, symName: __ZNSt3__19allocatorIcEC2B8ue170006Ev, symObjAddr: 0xF0C4, symBinAddr: 0x1000130A8, symSize: 0x2C }
  - { offsetInCU: 0x1C76C, offset: 0x1C76C, size: 0x8, addend: 0x0, symName: __ZNSt3__116__non_trivial_ifILb1ENS_9allocatorIcEEEC2B8ue170006Ev, symObjAddr: 0xF0F0, symBinAddr: 0x1000130D4, symSize: 0x14 }
  - { offsetInCU: 0x1C796, offset: 0x1C796, size: 0x8, addend: 0x0, symName: __ZNSt3__16vectorImNS_9allocatorImEEE11__make_iterB8ue170006EPm, symObjAddr: 0xF128, symBinAddr: 0x10001310C, symSize: 0x30 }
  - { offsetInCU: 0x1C7CB, offset: 0x1C7CB, size: 0x8, addend: 0x0, symName: __ZNSt3__111__wrap_iterIPmEC1B8ue170006ES1_, symObjAddr: 0xF158, symBinAddr: 0x10001313C, symSize: 0x34 }
  - { offsetInCU: 0x1C803, offset: 0x1C803, size: 0x8, addend: 0x0, symName: __ZNSt3__111__wrap_iterIPmEC2B8ue170006ES1_, symObjAddr: 0xF18C, symBinAddr: 0x100013170, symSize: 0x20 }
  - { offsetInCU: 0x1C83B, offset: 0x1C83B, size: 0x8, addend: 0x0, symName: __ZNKSt3__16vectorImNS_9allocatorImEEE6cbeginB8ue170006Ev, symObjAddr: 0xF1F4, symBinAddr: 0x1000131D8, symSize: 0x2C }
  - { offsetInCU: 0x1C861, offset: 0x1C861, size: 0x8, addend: 0x0, symName: __ZNSt3__16vectorImNS_9allocatorImEEE17__destruct_at_endB8ue170006EPm, symObjAddr: 0xF220, symBinAddr: 0x100013204, symSize: 0x4C }
  - { offsetInCU: 0x1C8A5, offset: 0x1C8A5, size: 0x8, addend: 0x0, symName: __ZNKSt3__111__wrap_iterIPKmE4baseB8ue170006Ev, symObjAddr: 0xF2AC, symBinAddr: 0x100013290, symSize: 0x18 }
  - { offsetInCU: 0x1C8CB, offset: 0x1C8CB, size: 0x8, addend: 0x0, symName: __ZNKSt3__16vectorImNS_9allocatorImEEE5beginB8ue170006Ev, symObjAddr: 0xF2C4, symBinAddr: 0x1000132A8, symSize: 0x30 }
  - { offsetInCU: 0x1C8F3, offset: 0x1C8F3, size: 0x8, addend: 0x0, symName: __ZNKSt3__16vectorImNS_9allocatorImEEE11__make_iterB8ue170006EPKm, symObjAddr: 0xF2F4, symBinAddr: 0x1000132D8, symSize: 0x30 }
  - { offsetInCU: 0x1C928, offset: 0x1C928, size: 0x8, addend: 0x0, symName: __ZNSt3__111__wrap_iterIPKmEC1B8ue170006ES2_, symObjAddr: 0xF324, symBinAddr: 0x100013308, symSize: 0x34 }
  - { offsetInCU: 0x1C960, offset: 0x1C960, size: 0x8, addend: 0x0, symName: __ZNSt3__111__wrap_iterIPKmEC2B8ue170006ES2_, symObjAddr: 0xF358, symBinAddr: 0x10001333C, symSize: 0x20 }
  - { offsetInCU: 0x1C998, offset: 0x1C998, size: 0x8, addend: 0x0, symName: __ZNKSt3__16vectorImNS_9allocatorImEEE17__annotate_shrinkB8ue170006Em, symObjAddr: 0xF378, symBinAddr: 0x10001335C, symSize: 0xB4 }
  - { offsetInCU: 0x1C9F1, offset: 0x1C9F1, size: 0x8, addend: 0x0, symName: __ZNKSt3__114__move_trivialclB8ue170006ImmLi0EEENS_4pairIPT_PT0_EES4_S4_S6_, symObjAddr: 0xF5C8, symBinAddr: 0x1000135AC, symSize: 0x48 }
  - { offsetInCU: 0x1CA59, offset: 0x1CA59, size: 0x8, addend: 0x0, symName: __ZNSt3__14pairIPmS1_EC1B8ue170006ERKS1_S4_, symObjAddr: 0xF840, symBinAddr: 0x100013824, symSize: 0x3C }
  - { offsetInCU: 0x1CA9F, offset: 0x1CA9F, size: 0x8, addend: 0x0, symName: __ZNSt3__14pairIPmS1_EC2B8ue170006ERKS1_S4_, symObjAddr: 0xF87C, symBinAddr: 0x100013860, symSize: 0x34 }
  - { offsetInCU: 0x1CAE5, offset: 0x1CAE5, size: 0x8, addend: 0x0, symName: __ZNSt3__118__unwrap_iter_implIPmLb1EE8__unwrapB8ue170006ES1_, symObjAddr: 0xF8B0, symBinAddr: 0x100013894, symSize: 0x24 }
  - { offsetInCU: 0x1CB08, offset: 0x1CB08, size: 0x8, addend: 0x0, symName: __ZNSt3__118__unwrap_iter_implIPmLb1EE8__rewrapB8ue170006ES1_S1_, symObjAddr: 0xF8D4, symBinAddr: 0x1000138B8, symSize: 0x50 }
  - { offsetInCU: 0x1CB39, offset: 0x1CB39, size: 0x8, addend: 0x0, symName: __ZNSt3__111__wrap_iterIPKmEC2B8ue170006IPmEERKNS0_IT_EEPNS_9enable_ifIXsr14is_convertibleIS6_S2_EE5valueEvE4typeE, symObjAddr: 0xF924, symBinAddr: 0x100013908, symSize: 0x40 }
  - { offsetInCU: 0x1CB85, offset: 0x1CB85, size: 0x8, addend: 0x0, symName: __ZNKSt3__111__wrap_iterIPmE4baseB8ue170006Ev, symObjAddr: 0xF964, symBinAddr: 0x100013948, symSize: 0x18 }
  - { offsetInCU: 0x1CBAB, offset: 0x1CBAB, size: 0x8, addend: 0x0, symName: __ZNSt3__16vectorImNS_9allocatorImEEEC2EmRKm, symObjAddr: 0xF97C, symBinAddr: 0x100013960, symSize: 0xE4 }
  - { offsetInCU: 0x1CC0A, offset: 0x1CC0A, size: 0x8, addend: 0x0, symName: __ZNSt3__16vectorImNS_9allocatorImEEE11__vallocateB8ue170006Em, symObjAddr: 0xFAA0, symBinAddr: 0x100013A84, symSize: 0xAC }
  - { offsetInCU: 0x1CC4E, offset: 0x1CC4E, size: 0x8, addend: 0x0, symName: __ZNSt3__16vectorImNS_9allocatorImEEE18__construct_at_endEmRKm, symObjAddr: 0xFB4C, symBinAddr: 0x100013B30, symSize: 0xD8 }
  - { offsetInCU: 0x1CCCF, offset: 0x1CCCF, size: 0x8, addend: 0x0, symName: __ZNSt3__128__exception_guard_exceptionsINS_6vectorImNS_9allocatorImEEE16__destroy_vectorEE10__completeB8ue170006Ev, symObjAddr: 0xFC24, symBinAddr: 0x100013C08, symSize: 0x1C }
  - { offsetInCU: 0x1CCF5, offset: 0x1CCF5, size: 0x8, addend: 0x0, symName: __ZNSt3__128__exception_guard_exceptionsINS_6vectorImNS_9allocatorImEEE16__destroy_vectorEED1B8ue170006Ev, symObjAddr: 0xFC40, symBinAddr: 0x100013C24, symSize: 0x2C }
  - { offsetInCU: 0x1CD1F, offset: 0x1CD1F, size: 0x8, addend: 0x0, symName: __ZNSt3__128__exception_guard_exceptionsINS_6vectorImNS_9allocatorImEEE16__destroy_vectorEEC1B8ue170006ES5_, symObjAddr: 0xFC6C, symBinAddr: 0x100013C50, symSize: 0x34 }
  - { offsetInCU: 0x1CD57, offset: 0x1CD57, size: 0x8, addend: 0x0, symName: __ZNSt3__128__exception_guard_exceptionsINS_6vectorImNS_9allocatorImEEE16__destroy_vectorEEC2B8ue170006ES5_, symObjAddr: 0xFCA0, symBinAddr: 0x100013C84, symSize: 0x24 }
  - { offsetInCU: 0x1CD8F, offset: 0x1CD8F, size: 0x8, addend: 0x0, symName: __ZNKSt3__16vectorImNS_9allocatorImEEE8max_sizeEv, symObjAddr: 0xFCC4, symBinAddr: 0x100013CA8, symSize: 0x74 }
  - { offsetInCU: 0x1CDB7, offset: 0x1CDB7, size: 0x8, addend: 0x0, symName: __ZNKSt3__16vectorImNS_9allocatorImEEE20__throw_length_errorB8ue170006Ev, symObjAddr: 0xFD38, symBinAddr: 0x100013D1C, symSize: 0x1C }
  - { offsetInCU: 0x1CDDD, offset: 0x1CDDD, size: 0x8, addend: 0x0, symName: __ZNSt3__16vectorImNS_9allocatorImEEE9__end_capB8ue170006Ev, symObjAddr: 0xFD94, symBinAddr: 0x100013D78, symSize: 0x28 }
  - { offsetInCU: 0x1CE03, offset: 0x1CE03, size: 0x8, addend: 0x0, symName: __ZNKSt3__16vectorImNS_9allocatorImEEE14__annotate_newB8ue170006Em, symObjAddr: 0xFDBC, symBinAddr: 0x100013DA0, symSize: 0xAC }
  - { offsetInCU: 0x1CE42, offset: 0x1CE42, size: 0x8, addend: 0x0, symName: __ZNSt3__116allocator_traitsINS_9allocatorImEEE8max_sizeB8ue170006IS2_vEEmRKS2_, symObjAddr: 0xFE68, symBinAddr: 0x100013E4C, symSize: 0x24 }
  - { offsetInCU: 0x1CE70, offset: 0x1CE70, size: 0x8, addend: 0x0, symName: __ZNKSt3__16vectorImNS_9allocatorImEEE7__allocB8ue170006Ev, symObjAddr: 0xFE8C, symBinAddr: 0x100013E70, symSize: 0x28 }
  - { offsetInCU: 0x1CE96, offset: 0x1CE96, size: 0x8, addend: 0x0, symName: __ZNKSt3__19allocatorImE8max_sizeB8ue170006Ev, symObjAddr: 0xFEB4, symBinAddr: 0x100013E98, symSize: 0x14 }
  - { offsetInCU: 0x1CEBC, offset: 0x1CEBC, size: 0x8, addend: 0x0, symName: __ZNKSt3__117__compressed_pairIPmNS_9allocatorImEEE6secondB8ue170006Ev, symObjAddr: 0xFEC8, symBinAddr: 0x100013EAC, symSize: 0x24 }
  - { offsetInCU: 0x1CEE2, offset: 0x1CEE2, size: 0x8, addend: 0x0, symName: __ZNKSt3__122__compressed_pair_elemINS_9allocatorImEELi1ELb1EE5__getB8ue170006Ev, symObjAddr: 0xFEEC, symBinAddr: 0x100013ED0, symSize: 0x14 }
  - { offsetInCU: 0x1CF08, offset: 0x1CF08, size: 0x8, addend: 0x0, symName: __ZNSt3__19allocatorImE8allocateB8ue170006Em, symObjAddr: 0xFF00, symBinAddr: 0x100013EE4, symSize: 0x84 }
  - { offsetInCU: 0x1CF3C, offset: 0x1CF3C, size: 0x8, addend: 0x0, symName: __ZNSt3__117__compressed_pairIPmNS_9allocatorImEEE5firstB8ue170006Ev, symObjAddr: 0xFF84, symBinAddr: 0x100013F68, symSize: 0x24 }
  - { offsetInCU: 0x1CF62, offset: 0x1CF62, size: 0x8, addend: 0x0, symName: __ZNSt3__122__compressed_pair_elemIPmLi0ELb0EE5__getB8ue170006Ev, symObjAddr: 0xFFA8, symBinAddr: 0x100013F8C, symSize: 0x14 }
  - { offsetInCU: 0x1CFA1, offset: 0x1CFA1, size: 0x8, addend: 0x0, symName: __ZNSt3__16vectorImNS_9allocatorImEEE21_ConstructTransactionC1B8ue170006ERS3_m, symObjAddr: 0xFFBC, symBinAddr: 0x100013FA0, symSize: 0x3C }
  - { offsetInCU: 0x1CFE9, offset: 0x1CFE9, size: 0x8, addend: 0x0, symName: __ZNSt3__116allocator_traitsINS_9allocatorImEEE9constructB8ue170006ImJRKmEvEEvRS2_PT_DpOT0_, symObjAddr: 0xFFF8, symBinAddr: 0x100013FDC, symSize: 0x34 }
  - { offsetInCU: 0x1D040, offset: 0x1D040, size: 0x8, addend: 0x0, symName: __ZNSt3__16vectorImNS_9allocatorImEEE21_ConstructTransactionD1B8ue170006Ev, symObjAddr: 0x1002C, symBinAddr: 0x100014010, symSize: 0x2C }
  - { offsetInCU: 0x1D06A, offset: 0x1D06A, size: 0x8, addend: 0x0, symName: __ZNSt3__16vectorImNS_9allocatorImEEE21_ConstructTransactionC2B8ue170006ERS3_m, symObjAddr: 0x10058, symBinAddr: 0x10001403C, symSize: 0x44 }
  - { offsetInCU: 0x1D0B2, offset: 0x1D0B2, size: 0x8, addend: 0x0, symName: __ZNSt3__19allocatorImE9constructB8ue170006ImJRKmEEEvPT_DpOT0_, symObjAddr: 0x1009C, symBinAddr: 0x100014080, symSize: 0x28 }
  - { offsetInCU: 0x1D108, offset: 0x1D108, size: 0x8, addend: 0x0, symName: __ZNSt3__16vectorImNS_9allocatorImEEE21_ConstructTransactionD2B8ue170006Ev, symObjAddr: 0x100C4, symBinAddr: 0x1000140A8, symSize: 0x20 }
  - { offsetInCU: 0x1D132, offset: 0x1D132, size: 0x8, addend: 0x0, symName: __ZNSt3__128__exception_guard_exceptionsINS_6vectorImNS_9allocatorImEEE16__destroy_vectorEED2B8ue170006Ev, symObjAddr: 0x100E4, symBinAddr: 0x1000140C8, symSize: 0x48 }
  - { offsetInCU: 0x1D15C, offset: 0x1D15C, size: 0x8, addend: 0x0, symName: __ZNSt3__16vectorImNS_9allocatorImEEE22__construct_one_at_endB8ue170006IJRKmEEEvDpOT_, symObjAddr: 0x1012C, symBinAddr: 0x100014110, symSize: 0x98 }
  - { offsetInCU: 0x1D1AB, offset: 0x1D1AB, size: 0x8, addend: 0x0, symName: __ZNSt3__16vectorImNS_9allocatorImEEE21__push_back_slow_pathIRKmEEvOT_, symObjAddr: 0x101C4, symBinAddr: 0x1000141A8, symSize: 0xE0 }
  - { offsetInCU: 0x1D209, offset: 0x1D209, size: 0x8, addend: 0x0, symName: __ZNKSt3__16vectorImNS_9allocatorImEEE11__recommendB8ue170006Em, symObjAddr: 0x102A4, symBinAddr: 0x100014288, symSize: 0xB4 }
  - { offsetInCU: 0x1D25E, offset: 0x1D25E, size: 0x8, addend: 0x0, symName: __ZNSt3__114__split_bufferImRNS_9allocatorImEEEC1EmmS3_, symObjAddr: 0x10358, symBinAddr: 0x10001433C, symSize: 0x44 }
  - { offsetInCU: 0x1D2B4, offset: 0x1D2B4, size: 0x8, addend: 0x0, symName: __ZNSt3__114__split_bufferImRNS_9allocatorImEEED1Ev, symObjAddr: 0x104AC, symBinAddr: 0x100014490, symSize: 0x2C }
  - { offsetInCU: 0x1D2E0, offset: 0x1D2E0, size: 0x8, addend: 0x0, symName: __ZNSt3__114__split_bufferImRNS_9allocatorImEEEC2EmmS3_, symObjAddr: 0x104D8, symBinAddr: 0x1000144BC, symSize: 0xD4 }
  - { offsetInCU: 0x1D353, offset: 0x1D353, size: 0x8, addend: 0x0, symName: __ZNSt3__117__compressed_pairIPmRNS_9allocatorImEEEC1B8ue170006IDnS4_EEOT_OT0_, symObjAddr: 0x105AC, symBinAddr: 0x100014590, symSize: 0x3C }
  - { offsetInCU: 0x1D3AB, offset: 0x1D3AB, size: 0x8, addend: 0x0, symName: __ZNSt3__114__split_bufferImRNS_9allocatorImEEE7__allocB8ue170006Ev, symObjAddr: 0x105E8, symBinAddr: 0x1000145CC, symSize: 0x28 }
  - { offsetInCU: 0x1D3D1, offset: 0x1D3D1, size: 0x8, addend: 0x0, symName: __ZNSt3__114__split_bufferImRNS_9allocatorImEEE9__end_capB8ue170006Ev, symObjAddr: 0x10610, symBinAddr: 0x1000145F4, symSize: 0x28 }
  - { offsetInCU: 0x1D3F7, offset: 0x1D3F7, size: 0x8, addend: 0x0, symName: __ZNSt3__117__compressed_pairIPmRNS_9allocatorImEEEC2B8ue170006IDnS4_EEOT_OT0_, symObjAddr: 0x10638, symBinAddr: 0x10001461C, symSize: 0x48 }
  - { offsetInCU: 0x1D44F, offset: 0x1D44F, size: 0x8, addend: 0x0, symName: __ZNSt3__122__compressed_pair_elemIRNS_9allocatorImEELi1ELb0EEC2B8ue170006IS3_vEEOT_, symObjAddr: 0x10680, symBinAddr: 0x100014664, symSize: 0x20 }
  - { offsetInCU: 0x1D491, offset: 0x1D491, size: 0x8, addend: 0x0, symName: __ZNSt3__117__compressed_pairIPmRNS_9allocatorImEEE6secondB8ue170006Ev, symObjAddr: 0x106A0, symBinAddr: 0x100014684, symSize: 0x28 }
  - { offsetInCU: 0x1D4B7, offset: 0x1D4B7, size: 0x8, addend: 0x0, symName: __ZNSt3__122__compressed_pair_elemIRNS_9allocatorImEELi1ELb0EE5__getB8ue170006Ev, symObjAddr: 0x106C8, symBinAddr: 0x1000146AC, symSize: 0x18 }
  - { offsetInCU: 0x1D4DD, offset: 0x1D4DD, size: 0x8, addend: 0x0, symName: __ZNSt3__117__compressed_pairIPmRNS_9allocatorImEEE5firstB8ue170006Ev, symObjAddr: 0x106E0, symBinAddr: 0x1000146C4, symSize: 0x24 }
  - { offsetInCU: 0x1D503, offset: 0x1D503, size: 0x8, addend: 0x0, symName: __ZNSt3__116reverse_iteratorIPmEC1B8ue170006ES1_, symObjAddr: 0x107EC, symBinAddr: 0x1000147D0, symSize: 0x34 }
  - { offsetInCU: 0x1D53B, offset: 0x1D53B, size: 0x8, addend: 0x0, symName: __ZNKSt3__116reverse_iteratorIPmE4baseB8ue170006Ev, symObjAddr: 0x10820, symBinAddr: 0x100014804, symSize: 0x18 }
  - { offsetInCU: 0x1D561, offset: 0x1D561, size: 0x8, addend: 0x0, symName: __ZNKSt3__116reverse_iteratorIPmEdeB8ue170006Ev, symObjAddr: 0x1090C, symBinAddr: 0x1000148F0, symSize: 0x28 }
  - { offsetInCU: 0x1D595, offset: 0x1D595, size: 0x8, addend: 0x0, symName: __ZNSt3__116reverse_iteratorIPmEppB8ue170006Ev, symObjAddr: 0x10934, symBinAddr: 0x100014918, symSize: 0x20 }
  - { offsetInCU: 0x1D5C0, offset: 0x1D5C0, size: 0x8, addend: 0x0, symName: __ZNSt3__119__to_address_helperINS_16reverse_iteratorIPmEEvE6__callB8ue170006ERKS3_, symObjAddr: 0x109CC, symBinAddr: 0x1000149B0, symSize: 0x4C }
  - { offsetInCU: 0x1D5E3, offset: 0x1D5E3, size: 0x8, addend: 0x0, symName: __ZNKSt3__116reverse_iteratorIPmEptB8ue170006Ev, symObjAddr: 0x10A18, symBinAddr: 0x1000149FC, symSize: 0x24 }
  - { offsetInCU: 0x1D623, offset: 0x1D623, size: 0x8, addend: 0x0, symName: __ZNKSt3__111__move_loopINS_17_ClassicAlgPolicyEEclB8ue170006INS_16reverse_iteratorIPmEES6_S6_EENS_4pairIT_T1_EES8_T0_S9_, symObjAddr: 0x10CB4, symBinAddr: 0x100014C98, symSize: 0xA0 }
  - { offsetInCU: 0x1D694, offset: 0x1D694, size: 0x8, addend: 0x0, symName: __ZNSt3__18_IterOpsINS_17_ClassicAlgPolicyEE11__iter_moveB8ue170006IRNS_16reverse_iteratorIPmEEEENS_9enable_ifIXsr12is_referenceIDTdeclsr3stdE7declvalIRT_EEEEE5valueEDTclsr3stdE4movedeclsr3stdE7declvalISA_EEEEE4typeEOS9_, symObjAddr: 0x10EB4, symBinAddr: 0x100014E98, symSize: 0x28 }
  - { offsetInCU: 0x1D6C0, offset: 0x1D6C0, size: 0x8, addend: 0x0, symName: __ZNSt3__18_IterOpsINS_17_ClassicAlgPolicyEE25__validate_iter_referenceB8ue170006IRNS_16reverse_iteratorIPmEEEEvv, symObjAddr: 0x10EDC, symBinAddr: 0x100014EC0, symSize: 0x4 }
  - { offsetInCU: 0x1D6DE, offset: 0x1D6DE, size: 0x8, addend: 0x0, symName: __ZNSt3__118__unwrap_iter_implINS_16reverse_iteratorIPmEELb0EE8__unwrapB8ue170006ES3_, symObjAddr: 0x10EE0, symBinAddr: 0x100014EC4, symSize: 0x24 }
  - { offsetInCU: 0x1D701, offset: 0x1D701, size: 0x8, addend: 0x0, symName: __ZNSt3__14pairINS_16reverse_iteratorIPmEES3_EC1B8ue170006ERKS3_S6_, symObjAddr: 0x10F04, symBinAddr: 0x100014EE8, symSize: 0x3C }
  - { offsetInCU: 0x1D747, offset: 0x1D747, size: 0x8, addend: 0x0, symName: __ZNSt3__14pairINS_16reverse_iteratorIPmEES3_EC2B8ue170006ERKS3_S6_, symObjAddr: 0x10F40, symBinAddr: 0x100014F24, symSize: 0x34 }
  - { offsetInCU: 0x1D78D, offset: 0x1D78D, size: 0x8, addend: 0x0, symName: __ZNSt3__118__unwrap_iter_implINS_16reverse_iteratorIPmEELb0EE8__rewrapB8ue170006ES3_S3_, symObjAddr: 0x10F74, symBinAddr: 0x100014F58, symSize: 0x2C }
  - { offsetInCU: 0x1D7BB, offset: 0x1D7BB, size: 0x8, addend: 0x0, symName: __ZNSt3__116reverse_iteratorIPmEC2B8ue170006ES1_, symObjAddr: 0x10FA0, symBinAddr: 0x100014F84, symSize: 0x28 }
  - { offsetInCU: 0x1D7F3, offset: 0x1D7F3, size: 0x8, addend: 0x0, symName: __ZNSt3__114__split_bufferImRNS_9allocatorImEEED2Ev, symObjAddr: 0x10FC8, symBinAddr: 0x100014FAC, symSize: 0x80 }
  - { offsetInCU: 0x1D81F, offset: 0x1D81F, size: 0x8, addend: 0x0, symName: __ZNSt3__114__split_bufferImRNS_9allocatorImEEE5clearB8ue170006Ev, symObjAddr: 0x11048, symBinAddr: 0x10001502C, symSize: 0x28 }
  - { offsetInCU: 0x1D845, offset: 0x1D845, size: 0x8, addend: 0x0, symName: __ZNKSt3__114__split_bufferImRNS_9allocatorImEEE8capacityB8ue170006Ev, symObjAddr: 0x11070, symBinAddr: 0x100015054, symSize: 0x40 }
  - { offsetInCU: 0x1D86B, offset: 0x1D86B, size: 0x8, addend: 0x0, symName: __ZNSt3__114__split_bufferImRNS_9allocatorImEEE17__destruct_at_endB8ue170006EPm, symObjAddr: 0x110B0, symBinAddr: 0x100015094, symSize: 0x2C }
  - { offsetInCU: 0x1D89F, offset: 0x1D89F, size: 0x8, addend: 0x0, symName: __ZNSt3__114__split_bufferImRNS_9allocatorImEEE17__destruct_at_endB8ue170006EPmNS_17integral_constantIbLb0EEE, symObjAddr: 0x110DC, symBinAddr: 0x1000150C0, symSize: 0x94 }
  - { offsetInCU: 0x1D8E0, offset: 0x1D8E0, size: 0x8, addend: 0x0, symName: __ZNKSt3__114__split_bufferImRNS_9allocatorImEEE9__end_capB8ue170006Ev, symObjAddr: 0x11170, symBinAddr: 0x100015154, symSize: 0x28 }
  - { offsetInCU: 0x1D906, offset: 0x1D906, size: 0x8, addend: 0x0, symName: __ZNKSt3__117__compressed_pairIPmRNS_9allocatorImEEE5firstB8ue170006Ev, symObjAddr: 0x11198, symBinAddr: 0x10001517C, symSize: 0x24 }
  - { offsetInCU: 0x1D92C, offset: 0x1D92C, size: 0x8, addend: 0x0, symName: __ZNSt3__111__wrap_iterIPmEpLB8ue170006El, symObjAddr: 0x111BC, symBinAddr: 0x1000151A0, symSize: 0x28 }
  - { offsetInCU: 0x1D960, offset: 0x1D960, size: 0x8, addend: 0x0, symName: __ZNSt3__18_IterOpsINS_17_ClassicAlgPolicyEE4nextB8ue170006IPmEET_S5_S5_, symObjAddr: 0x1144C, symBinAddr: 0x100015430, symSize: 0x18 }
  - { offsetInCU: 0x1D997, offset: 0x1D997, size: 0x8, addend: 0x0, symName: __ZNSt3__18_IterOpsINS_17_ClassicAlgPolicyEE9iter_swapB8ue170006IRPmS5_EEvOT_OT0_, symObjAddr: 0x11640, symBinAddr: 0x100015624, symSize: 0x34 }
  - { offsetInCU: 0x1D9DA, offset: 0x1D9DA, size: 0x8, addend: 0x0, symName: __ZNSt3__18_IterOpsINS_17_ClassicAlgPolicyEE11__iter_moveB8ue170006IRPmEENS_9enable_ifIXsr12is_referenceIDTdeclsr3stdE7declvalIRT_EEEEE5valueEDTclsr3stdE4movedeclsr3stdE7declvalIS8_EEEEE4typeEOS7_, symObjAddr: 0x11990, symBinAddr: 0x100015974, symSize: 0x28 }
  - { offsetInCU: 0x1DA06, offset: 0x1DA06, size: 0x8, addend: 0x0, symName: __ZNSt3__18_IterOpsINS_17_ClassicAlgPolicyEE25__validate_iter_referenceB8ue170006IRPmEEvv, symObjAddr: 0x119B8, symBinAddr: 0x10001599C, symSize: 0x4 }
  - { offsetInCU: 0x1DA24, offset: 0x1DA24, size: 0x8, addend: 0x0, symName: __ZNSt3__118__unwrap_iter_implINS_11__wrap_iterIPmEELb1EE8__unwrapB8ue170006ES3_, symObjAddr: 0x11CCC, symBinAddr: 0x100015CB0, symSize: 0x28 }
  - { offsetInCU: 0x1DA4C, offset: 0x1DA4C, size: 0x8, addend: 0x0, symName: __ZNSt3__119__to_address_helperINS_11__wrap_iterIPmEEvE6__callB8ue170006ERKS3_, symObjAddr: 0x11D18, symBinAddr: 0x100015CFC, symSize: 0x30 }
  - { offsetInCU: 0x1DA6F, offset: 0x1DA6F, size: 0x8, addend: 0x0, symName: __ZNSt3__114pointer_traitsINS_11__wrap_iterIPmEEE10to_addressB8ue170006ES3_, symObjAddr: 0x11D48, symBinAddr: 0x100015D2C, symSize: 0x2C }
  - { offsetInCU: 0x1DA92, offset: 0x1DA92, size: 0x8, addend: 0x0, symName: __ZNSt3__19basic_iosIcNS_11char_traitsIcEEEC2B8ue170006Ev, symObjAddr: 0x11D74, symBinAddr: 0x100015D58, symSize: 0x44 }
  - { offsetInCU: 0x1DABC, offset: 0x1DABC, size: 0x8, addend: 0x0, symName: __ZNSt3__114basic_iostreamIcNS_11char_traitsIcEEEC2B8ue170006EPNS_15basic_streambufIcS2_EE, symObjAddr: 0x11DB8, symBinAddr: 0x100015D9C, symSize: 0xB4 }
  - { offsetInCU: 0x1DB02, offset: 0x1DB02, size: 0x8, addend: 0x0, symName: __ZNSt3__115basic_stringbufIcNS_11char_traitsIcEENS_9allocatorIcEEEC1B8ue170006Ej, symObjAddr: 0x11E6C, symBinAddr: 0x100015E50, symSize: 0x34 }
  - { offsetInCU: 0x1DB3B, offset: 0x1DB3B, size: 0x8, addend: 0x0, symName: __ZNSt3__18ios_baseC2B8ue170006Ev, symObjAddr: 0x11EA0, symBinAddr: 0x100015E84, symSize: 0x24 }
  - { offsetInCU: 0x1DB65, offset: 0x1DB65, size: 0x8, addend: 0x0, symName: __ZNSt3__113basic_istreamIcNS_11char_traitsIcEEEC2B8ue170006EPNS_15basic_streambufIcS2_EE, symObjAddr: 0x11EC4, symBinAddr: 0x100015EA8, symSize: 0x64 }
  - { offsetInCU: 0x1DBAA, offset: 0x1DBAA, size: 0x8, addend: 0x0, symName: __ZNSt3__113basic_ostreamIcNS_11char_traitsIcEEEC2B8ue170006Ev, symObjAddr: 0x11F28, symBinAddr: 0x100015F0C, symSize: 0x34 }
  - { offsetInCU: 0x1DBE1, offset: 0x1DBE1, size: 0x8, addend: 0x0, symName: __ZNSt3__19basic_iosIcNS_11char_traitsIcEEE4initB8ue170006EPNS_15basic_streambufIcS2_EE, symObjAddr: 0x11F5C, symBinAddr: 0x100015F40, symSize: 0x44 }
  - { offsetInCU: 0x1DC18, offset: 0x1DC18, size: 0x8, addend: 0x0, symName: __ZNSt3__111char_traitsIcE3eofB8ue170006Ev, symObjAddr: 0x11FA0, symBinAddr: 0x100015F84, symSize: 0x8 }
  - { offsetInCU: 0x1DC2C, offset: 0x1DC2C, size: 0x8, addend: 0x0, symName: __ZNSt3__115basic_stringbufIcNS_11char_traitsIcEENS_9allocatorIcEEEC2B8ue170006Ej, symObjAddr: 0x11FA8, symBinAddr: 0x100015F8C, symSize: 0x90 }
  - { offsetInCU: 0x1DC83, offset: 0x1DC83, size: 0x8, addend: 0x0, symName: __ZNKSt3__113basic_ostreamIcNS_11char_traitsIcEEE6sentrycvbB8ue170006Ev, symObjAddr: 0x1222C, symBinAddr: 0x100016210, symSize: 0x1C }
  - { offsetInCU: 0x1DCA9, offset: 0x1DCA9, size: 0x8, addend: 0x0, symName: __ZNSt3__119ostreambuf_iteratorIcNS_11char_traitsIcEEEC1B8ue170006ERNS_13basic_ostreamIcS2_EE, symObjAddr: 0x12490, symBinAddr: 0x100016474, symSize: 0x34 }
  - { offsetInCU: 0x1DCE1, offset: 0x1DCE1, size: 0x8, addend: 0x0, symName: __ZNKSt3__18ios_base5flagsB8ue170006Ev, symObjAddr: 0x124C4, symBinAddr: 0x1000164A8, symSize: 0x18 }
  - { offsetInCU: 0x1DD09, offset: 0x1DD09, size: 0x8, addend: 0x0, symName: __ZNKSt3__19basic_iosIcNS_11char_traitsIcEEE4fillB8ue170006Ev, symObjAddr: 0x124DC, symBinAddr: 0x1000164C0, symSize: 0x64 }
  - { offsetInCU: 0x1DD31, offset: 0x1DD31, size: 0x8, addend: 0x0, symName: __ZNKSt3__119ostreambuf_iteratorIcNS_11char_traitsIcEEE6failedB8ue170006Ev, symObjAddr: 0x12540, symBinAddr: 0x100016524, symSize: 0x24 }
  - { offsetInCU: 0x1DD57, offset: 0x1DD57, size: 0x8, addend: 0x0, symName: __ZNSt3__19basic_iosIcNS_11char_traitsIcEEE8setstateB8ue170006Ej, symObjAddr: 0x12564, symBinAddr: 0x100016548, symSize: 0x2C }
  - { offsetInCU: 0x1DD8C, offset: 0x1DD8C, size: 0x8, addend: 0x0, symName: __ZNKSt3__18ios_base5widthB8ue170006Ev, symObjAddr: 0x12590, symBinAddr: 0x100016574, symSize: 0x18 }
  - { offsetInCU: 0x1DDB4, offset: 0x1DDB4, size: 0x8, addend: 0x0, symName: __ZNSt3__115basic_streambufIcNS_11char_traitsIcEEE5sputnB8ue170006EPKcl, symObjAddr: 0x125A8, symBinAddr: 0x10001658C, symSize: 0x3C }
  - { offsetInCU: 0x1DDF6, offset: 0x1DDF6, size: 0x8, addend: 0x0, symName: __ZNSt3__112basic_stringIcNS_11char_traitsIcEENS_9allocatorIcEEEC1B8ue170006Emc, symObjAddr: 0x125E4, symBinAddr: 0x1000165C8, symSize: 0x3C }
  - { offsetInCU: 0x1DE3E, offset: 0x1DE3E, size: 0x8, addend: 0x0, symName: __ZNKSt3__112basic_stringIcNS_11char_traitsIcEENS_9allocatorIcEEE4dataB8ue170006Ev, symObjAddr: 0x12620, symBinAddr: 0x100016604, symSize: 0x28 }
  - { offsetInCU: 0x1DE64, offset: 0x1DE64, size: 0x8, addend: 0x0, symName: __ZNSt3__18ios_base5widthB8ue170006El, symObjAddr: 0x12648, symBinAddr: 0x10001662C, symSize: 0x2C }
  - { offsetInCU: 0x1DEAA, offset: 0x1DEAA, size: 0x8, addend: 0x0, symName: __ZNSt3__112basic_stringIcNS_11char_traitsIcEENS_9allocatorIcEEEC2B8ue170006Emc, symObjAddr: 0x12674, symBinAddr: 0x100016658, symSize: 0x4C }
  - { offsetInCU: 0x1DEF2, offset: 0x1DEF2, size: 0x8, addend: 0x0, symName: __ZNKSt3__112basic_stringIcNS_11char_traitsIcEENS_9allocatorIcEEE13__get_pointerB8ue170006Ev, symObjAddr: 0x126D4, symBinAddr: 0x1000166B8, symSize: 0x54 }
  - { offsetInCU: 0x1DF18, offset: 0x1DF18, size: 0x8, addend: 0x0, symName: __ZNKSt3__112basic_stringIcNS_11char_traitsIcEENS_9allocatorIcEEE9__is_longB8ue170006Ev, symObjAddr: 0x12728, symBinAddr: 0x10001670C, symSize: 0x74 }
  - { offsetInCU: 0x1DF3E, offset: 0x1DF3E, size: 0x8, addend: 0x0, symName: __ZNKSt3__112basic_stringIcNS_11char_traitsIcEENS_9allocatorIcEEE18__get_long_pointerB8ue170006Ev, symObjAddr: 0x1279C, symBinAddr: 0x100016780, symSize: 0x28 }
  - { offsetInCU: 0x1DF64, offset: 0x1DF64, size: 0x8, addend: 0x0, symName: __ZNKSt3__112basic_stringIcNS_11char_traitsIcEENS_9allocatorIcEEE19__get_short_pointerB8ue170006Ev, symObjAddr: 0x127C4, symBinAddr: 0x1000167A8, symSize: 0x28 }
  - { offsetInCU: 0x1DF8A, offset: 0x1DF8A, size: 0x8, addend: 0x0, symName: __ZNKSt3__117__compressed_pairINS_12basic_stringIcNS_11char_traitsIcEENS_9allocatorIcEEE5__repES5_E5firstB8ue170006Ev, symObjAddr: 0x127EC, symBinAddr: 0x1000167D0, symSize: 0x24 }
  - { offsetInCU: 0x1DFB0, offset: 0x1DFB0, size: 0x8, addend: 0x0, symName: __ZNKSt3__122__compressed_pair_elemINS_12basic_stringIcNS_11char_traitsIcEENS_9allocatorIcEEE5__repELi0ELb0EE5__getB8ue170006Ev, symObjAddr: 0x12810, symBinAddr: 0x1000167F4, symSize: 0x14 }
  - { offsetInCU: 0x1DFD6, offset: 0x1DFD6, size: 0x8, addend: 0x0, symName: __ZNSt3__114pointer_traitsIPKcE10pointer_toB8ue170006ERS1_, symObjAddr: 0x12824, symBinAddr: 0x100016808, symSize: 0x14 }
  - { offsetInCU: 0x1DFF9, offset: 0x1DFF9, size: 0x8, addend: 0x0, symName: __ZNSt3__119ostreambuf_iteratorIcNS_11char_traitsIcEEEC2B8ue170006ERNS_13basic_ostreamIcS2_EE, symObjAddr: 0x12838, symBinAddr: 0x10001681C, symSize: 0x68 }
  - { offsetInCU: 0x1E031, offset: 0x1E031, size: 0x8, addend: 0x0, symName: __ZNKSt3__19basic_iosIcNS_11char_traitsIcEEE5rdbufB8ue170006Ev, symObjAddr: 0x128A0, symBinAddr: 0x100016884, symSize: 0x24 }
  - { offsetInCU: 0x1E059, offset: 0x1E059, size: 0x8, addend: 0x0, symName: __ZNKSt3__18ios_base5rdbufB8ue170006Ev, symObjAddr: 0x128C4, symBinAddr: 0x1000168A8, symSize: 0x18 }
  - { offsetInCU: 0x1E07F, offset: 0x1E07F, size: 0x8, addend: 0x0, symName: __ZNSt3__111char_traitsIcE11eq_int_typeB8ue170006Eii, symObjAddr: 0x128DC, symBinAddr: 0x1000168C0, symSize: 0x28 }
  - { offsetInCU: 0x1E0B2, offset: 0x1E0B2, size: 0x8, addend: 0x0, symName: __ZNKSt3__19basic_iosIcNS_11char_traitsIcEEE5widenB8ue170006Ec, symObjAddr: 0x12904, symBinAddr: 0x1000168E8, symSize: 0x8C }
  - { offsetInCU: 0x1E11B, offset: 0x1E11B, size: 0x8, addend: 0x0, symName: __ZNKSt3__15ctypeIcE5widenB8ue170006Ec, symObjAddr: 0x129BC, symBinAddr: 0x1000169A0, symSize: 0x38 }
  - { offsetInCU: 0x1E150, offset: 0x1E150, size: 0x8, addend: 0x0, symName: __ZNSt3__18ios_base8setstateB8ue170006Ej, symObjAddr: 0x129F4, symBinAddr: 0x1000169D8, symSize: 0x34 }
  - { offsetInCU: 0x1E187, offset: 0x1E187, size: 0x8, addend: 0x0, symName: __ZNSt3__16vectorImNS_9allocatorImEEEC2ERKS3_, symObjAddr: 0x12A28, symBinAddr: 0x100016A0C, symSize: 0x94 }
  - { offsetInCU: 0x1E1C2, offset: 0x1E1C2, size: 0x8, addend: 0x0, symName: __ZNSt3__116allocator_traitsINS_9allocatorImEEE37select_on_container_copy_constructionB8ue170006IS2_vvEES2_RKS2_, symObjAddr: 0x12ABC, symBinAddr: 0x100016AA0, symSize: 0x10 }
  - { offsetInCU: 0x1E1F7, offset: 0x1E1F7, size: 0x8, addend: 0x0, symName: __ZNSt3__117__compressed_pairIPmNS_9allocatorImEEEC1B8ue170006IDnS3_EEOT_OT0_, symObjAddr: 0x12ACC, symBinAddr: 0x100016AB0, symSize: 0x3C }
  - { offsetInCU: 0x1E24F, offset: 0x1E24F, size: 0x8, addend: 0x0, symName: __ZNSt3__16vectorImNS_9allocatorImEEE16__init_with_sizeB8ue170006IPmS5_EEvT_T0_m, symObjAddr: 0x12B08, symBinAddr: 0x100016AEC, symSize: 0xC0 }
  - { offsetInCU: 0x1E2C3, offset: 0x1E2C3, size: 0x8, addend: 0x0, symName: __ZNSt3__117__compressed_pairIPmNS_9allocatorImEEEC2B8ue170006IDnS3_EEOT_OT0_, symObjAddr: 0x12BC8, symBinAddr: 0x100016BAC, symSize: 0x44 }
  - { offsetInCU: 0x1E31B, offset: 0x1E31B, size: 0x8, addend: 0x0, symName: __ZNSt3__122__compressed_pair_elemINS_9allocatorImEELi1ELb1EEC2B8ue170006IS2_vEEOT_, symObjAddr: 0x12C0C, symBinAddr: 0x100016BF0, symSize: 0x18 }
  - { offsetInCU: 0x1E35D, offset: 0x1E35D, size: 0x8, addend: 0x0, symName: __ZNSt3__16vectorImNS_9allocatorImEEE18__construct_at_endIPmS5_EEvT_T0_m, symObjAddr: 0x12C24, symBinAddr: 0x100016C08, symSize: 0x94 }
  - { offsetInCU: 0x1E3D3, offset: 0x1E3D3, size: 0x8, addend: 0x0, symName: __ZNSt3__129_AllocatorDestroyRangeReverseINS_9allocatorImEEPmEC1B8ue170006ERS2_RS3_S6_, symObjAddr: 0x12E80, symBinAddr: 0x100016E64, symSize: 0x44 }
  - { offsetInCU: 0x1E42A, offset: 0x1E42A, size: 0x8, addend: 0x0, symName: __ZNSt3__116allocator_traitsINS_9allocatorImEEE9constructB8ue170006ImJRmEvEEvRS2_PT_DpOT0_, symObjAddr: 0x12EC4, symBinAddr: 0x100016EA8, symSize: 0x34 }
  - { offsetInCU: 0x1E481, offset: 0x1E481, size: 0x8, addend: 0x0, symName: __ZNSt3__128__exception_guard_exceptionsINS_29_AllocatorDestroyRangeReverseINS_9allocatorImEEPmEEE10__completeB8ue170006Ev, symObjAddr: 0x12EF8, symBinAddr: 0x100016EDC, symSize: 0x1C }
  - { offsetInCU: 0x1E4A7, offset: 0x1E4A7, size: 0x8, addend: 0x0, symName: __ZNSt3__128__exception_guard_exceptionsINS_29_AllocatorDestroyRangeReverseINS_9allocatorImEEPmEEED1B8ue170006Ev, symObjAddr: 0x12F14, symBinAddr: 0x100016EF8, symSize: 0x2C }
  - { offsetInCU: 0x1E4D1, offset: 0x1E4D1, size: 0x8, addend: 0x0, symName: __ZNSt3__128__exception_guard_exceptionsINS_29_AllocatorDestroyRangeReverseINS_9allocatorImEEPmEEEC1B8ue170006ES5_, symObjAddr: 0x12F40, symBinAddr: 0x100016F24, symSize: 0x34 }
  - { offsetInCU: 0x1E50A, offset: 0x1E50A, size: 0x8, addend: 0x0, symName: __ZNSt3__128__exception_guard_exceptionsINS_29_AllocatorDestroyRangeReverseINS_9allocatorImEEPmEEEC2B8ue170006ES5_, symObjAddr: 0x12F74, symBinAddr: 0x100016F58, symSize: 0x30 }
  - { offsetInCU: 0x1E543, offset: 0x1E543, size: 0x8, addend: 0x0, symName: __ZNSt3__129_AllocatorDestroyRangeReverseINS_9allocatorImEEPmEC2B8ue170006ERS2_RS3_S6_, symObjAddr: 0x12FA4, symBinAddr: 0x100016F88, symSize: 0x38 }
  - { offsetInCU: 0x1E59A, offset: 0x1E59A, size: 0x8, addend: 0x0, symName: __ZNSt3__19allocatorImE9constructB8ue170006ImJRmEEEvPT_DpOT0_, symObjAddr: 0x12FDC, symBinAddr: 0x100016FC0, symSize: 0x28 }
  - { offsetInCU: 0x1E5F0, offset: 0x1E5F0, size: 0x8, addend: 0x0, symName: __ZNSt3__128__exception_guard_exceptionsINS_29_AllocatorDestroyRangeReverseINS_9allocatorImEEPmEEED2B8ue170006Ev, symObjAddr: 0x13004, symBinAddr: 0x100016FE8, symSize: 0x48 }
  - { offsetInCU: 0x1E61A, offset: 0x1E61A, size: 0x8, addend: 0x0, symName: __ZNKSt3__129_AllocatorDestroyRangeReverseINS_9allocatorImEEPmEclB8ue170006Ev, symObjAddr: 0x1304C, symBinAddr: 0x100017030, symSize: 0x68 }
  - { offsetInCU: 0x1E640, offset: 0x1E640, size: 0x8, addend: 0x0, symName: __ZNSt3__16vectorINS_4pairImmEENS_9allocatorIS2_EEEC2B8ue170006Ev, symObjAddr: 0x13124, symBinAddr: 0x100017108, symSize: 0x44 }
  - { offsetInCU: 0x1E66A, offset: 0x1E66A, size: 0x8, addend: 0x0, symName: __ZNSt3__117__compressed_pairIPNS_4pairImmEENS_9allocatorIS2_EEEC1B8ue170006IDnNS_18__default_init_tagEEEOT_OT0_, symObjAddr: 0x13168, symBinAddr: 0x10001714C, symSize: 0x3C }
  - { offsetInCU: 0x1E6C2, offset: 0x1E6C2, size: 0x8, addend: 0x0, symName: __ZNSt3__117__compressed_pairIPNS_4pairImmEENS_9allocatorIS2_EEEC2B8ue170006IDnNS_18__default_init_tagEEEOT_OT0_, symObjAddr: 0x131A4, symBinAddr: 0x100017188, symSize: 0x40 }
  - { offsetInCU: 0x1E71A, offset: 0x1E71A, size: 0x8, addend: 0x0, symName: __ZNSt3__122__compressed_pair_elemIPNS_4pairImmEELi0ELb0EEC2B8ue170006IDnvEEOT_, symObjAddr: 0x131E4, symBinAddr: 0x1000171C8, symSize: 0x1C }
  - { offsetInCU: 0x1E75C, offset: 0x1E75C, size: 0x8, addend: 0x0, symName: __ZNSt3__122__compressed_pair_elemINS_9allocatorINS_4pairImmEEEELi1ELb1EEC2B8ue170006ENS_18__default_init_tagE, symObjAddr: 0x13200, symBinAddr: 0x1000171E4, symSize: 0x2C }
  - { offsetInCU: 0x1E791, offset: 0x1E791, size: 0x8, addend: 0x0, symName: __ZNSt3__19allocatorINS_4pairImmEEEC2B8ue170006Ev, symObjAddr: 0x1322C, symBinAddr: 0x100017210, symSize: 0x2C }
  - { offsetInCU: 0x1E7BB, offset: 0x1E7BB, size: 0x8, addend: 0x0, symName: __ZNSt3__116__non_trivial_ifILb1ENS_9allocatorINS_4pairImmEEEEEC2B8ue170006Ev, symObjAddr: 0x13258, symBinAddr: 0x10001723C, symSize: 0x14 }
  - { offsetInCU: 0x1E7E5, offset: 0x1E7E5, size: 0x8, addend: 0x0, symName: __ZNSt3__16vectorINS_4pairImmEENS_9allocatorIS2_EEED2B8ue170006Ev, symObjAddr: 0x1326C, symBinAddr: 0x100017250, symSize: 0x3C }
  - { offsetInCU: 0x1E80F, offset: 0x1E80F, size: 0x8, addend: 0x0, symName: __ZNSt3__16vectorINS_4pairImmEENS_9allocatorIS2_EEE16__destroy_vectorC1B8ue170006ERS5_, symObjAddr: 0x132A8, symBinAddr: 0x10001728C, symSize: 0x34 }
  - { offsetInCU: 0x1E848, offset: 0x1E848, size: 0x8, addend: 0x0, symName: __ZNSt3__16vectorINS_4pairImmEENS_9allocatorIS2_EEE16__destroy_vectorclB8ue170006Ev, symObjAddr: 0x132DC, symBinAddr: 0x1000172C0, symSize: 0x90 }
  - { offsetInCU: 0x1E86E, offset: 0x1E86E, size: 0x8, addend: 0x0, symName: __ZNSt3__16vectorINS_4pairImmEENS_9allocatorIS2_EEE16__destroy_vectorC2B8ue170006ERS5_, symObjAddr: 0x1336C, symBinAddr: 0x100017350, symSize: 0x20 }
  - { offsetInCU: 0x1E8A7, offset: 0x1E8A7, size: 0x8, addend: 0x0, symName: __ZNSt3__16vectorINS_4pairImmEENS_9allocatorIS2_EEE7__clearB8ue170006Ev, symObjAddr: 0x1338C, symBinAddr: 0x100017370, symSize: 0x28 }
  - { offsetInCU: 0x1E8CD, offset: 0x1E8CD, size: 0x8, addend: 0x0, symName: __ZNKSt3__16vectorINS_4pairImmEENS_9allocatorIS2_EEE17__annotate_deleteB8ue170006Ev, symObjAddr: 0x133B4, symBinAddr: 0x100017398, symSize: 0xB8 }
  - { offsetInCU: 0x1E8F3, offset: 0x1E8F3, size: 0x8, addend: 0x0, symName: __ZNSt3__116allocator_traitsINS_9allocatorINS_4pairImmEEEEE10deallocateB8ue170006ERS4_PS3_m, symObjAddr: 0x1346C, symBinAddr: 0x100017450, symSize: 0x34 }
  - { offsetInCU: 0x1E935, offset: 0x1E935, size: 0x8, addend: 0x0, symName: __ZNSt3__16vectorINS_4pairImmEENS_9allocatorIS2_EEE7__allocB8ue170006Ev, symObjAddr: 0x134A0, symBinAddr: 0x100017484, symSize: 0x28 }
  - { offsetInCU: 0x1E95B, offset: 0x1E95B, size: 0x8, addend: 0x0, symName: __ZNKSt3__16vectorINS_4pairImmEENS_9allocatorIS2_EEE8capacityB8ue170006Ev, symObjAddr: 0x134C8, symBinAddr: 0x1000174AC, symSize: 0x40 }
  - { offsetInCU: 0x1E981, offset: 0x1E981, size: 0x8, addend: 0x0, symName: __ZNSt3__16vectorINS_4pairImmEENS_9allocatorIS2_EEE22__base_destruct_at_endB8ue170006EPS2_, symObjAddr: 0x13508, symBinAddr: 0x1000174EC, symSize: 0xA0 }
  - { offsetInCU: 0x1E9C5, offset: 0x1E9C5, size: 0x8, addend: 0x0, symName: __ZNSt3__116allocator_traitsINS_9allocatorINS_4pairImmEEEEE7destroyB8ue170006IS3_vEEvRS4_PT_, symObjAddr: 0x135A8, symBinAddr: 0x10001758C, symSize: 0x2C }
  - { offsetInCU: 0x1EA02, offset: 0x1EA02, size: 0x8, addend: 0x0, symName: __ZNSt3__19allocatorINS_4pairImmEEE7destroyB8ue170006EPS2_, symObjAddr: 0x135E8, symBinAddr: 0x1000175CC, symSize: 0x14 }
  - { offsetInCU: 0x1EA36, offset: 0x1EA36, size: 0x8, addend: 0x0, symName: __ZNKSt3__16vectorINS_4pairImmEENS_9allocatorIS2_EEE31__annotate_contiguous_containerB8ue170006EPKvS7_S7_S7_, symObjAddr: 0x135FC, symBinAddr: 0x1000175E0, symSize: 0x20 }
  - { offsetInCU: 0x1EA88, offset: 0x1EA88, size: 0x8, addend: 0x0, symName: __ZNKSt3__16vectorINS_4pairImmEENS_9allocatorIS2_EEE4dataB8ue170006Ev, symObjAddr: 0x1361C, symBinAddr: 0x100017600, symSize: 0x28 }
  - { offsetInCU: 0x1EAAE, offset: 0x1EAAE, size: 0x8, addend: 0x0, symName: __ZNKSt3__16vectorINS_4pairImmEENS_9allocatorIS2_EEE4sizeB8ue170006Ev, symObjAddr: 0x13644, symBinAddr: 0x100017628, symSize: 0x28 }
  - { offsetInCU: 0x1EAD4, offset: 0x1EAD4, size: 0x8, addend: 0x0, symName: __ZNSt3__19allocatorINS_4pairImmEEE10deallocateB8ue170006EPS2_m, symObjAddr: 0x1366C, symBinAddr: 0x100017650, symSize: 0x70 }
  - { offsetInCU: 0x1EB16, offset: 0x1EB16, size: 0x8, addend: 0x0, symName: __ZNSt3__117__compressed_pairIPNS_4pairImmEENS_9allocatorIS2_EEE6secondB8ue170006Ev, symObjAddr: 0x136DC, symBinAddr: 0x1000176C0, symSize: 0x24 }
  - { offsetInCU: 0x1EB3C, offset: 0x1EB3C, size: 0x8, addend: 0x0, symName: __ZNSt3__122__compressed_pair_elemINS_9allocatorINS_4pairImmEEEELi1ELb1EE5__getB8ue170006Ev, symObjAddr: 0x13700, symBinAddr: 0x1000176E4, symSize: 0x14 }
  - { offsetInCU: 0x1EB62, offset: 0x1EB62, size: 0x8, addend: 0x0, symName: __ZNKSt3__16vectorINS_4pairImmEENS_9allocatorIS2_EEE9__end_capB8ue170006Ev, symObjAddr: 0x13714, symBinAddr: 0x1000176F8, symSize: 0x28 }
  - { offsetInCU: 0x1EB88, offset: 0x1EB88, size: 0x8, addend: 0x0, symName: __ZNKSt3__117__compressed_pairIPNS_4pairImmEENS_9allocatorIS2_EEE5firstB8ue170006Ev, symObjAddr: 0x1373C, symBinAddr: 0x100017720, symSize: 0x24 }
  - { offsetInCU: 0x1EBAE, offset: 0x1EBAE, size: 0x8, addend: 0x0, symName: __ZNKSt3__122__compressed_pair_elemIPNS_4pairImmEELi0ELb0EE5__getB8ue170006Ev, symObjAddr: 0x13760, symBinAddr: 0x100017744, symSize: 0x14 }
  - { offsetInCU: 0x1EBD4, offset: 0x1EBD4, size: 0x8, addend: 0x0, symName: __ZNSt3__14pairImmEC2B8ue170006ERKmS3_, symObjAddr: 0x13774, symBinAddr: 0x100017758, symSize: 0x34 }
  - { offsetInCU: 0x1EC1A, offset: 0x1EC1A, size: 0x8, addend: 0x0, symName: __ZNSt3__16vectorINS_4pairImmEENS_9allocatorIS2_EEE9__end_capB8ue170006Ev, symObjAddr: 0x137A8, symBinAddr: 0x10001778C, symSize: 0x28 }
  - { offsetInCU: 0x1EC40, offset: 0x1EC40, size: 0x8, addend: 0x0, symName: __ZNSt3__16vectorINS_4pairImmEENS_9allocatorIS2_EEE22__construct_one_at_endB8ue170006IJRKS2_EEEvDpOT_, symObjAddr: 0x137D0, symBinAddr: 0x1000177B4, symSize: 0x98 }
  - { offsetInCU: 0x1EC8F, offset: 0x1EC8F, size: 0x8, addend: 0x0, symName: __ZNSt3__16vectorINS_4pairImmEENS_9allocatorIS2_EEE21__push_back_slow_pathIRKS2_EEvOT_, symObjAddr: 0x13868, symBinAddr: 0x10001784C, symSize: 0xE0 }
  - { offsetInCU: 0x1ECED, offset: 0x1ECED, size: 0x8, addend: 0x0, symName: __ZNSt3__117__compressed_pairIPNS_4pairImmEENS_9allocatorIS2_EEE5firstB8ue170006Ev, symObjAddr: 0x13948, symBinAddr: 0x10001792C, symSize: 0x24 }
  - { offsetInCU: 0x1ED13, offset: 0x1ED13, size: 0x8, addend: 0x0, symName: __ZNSt3__122__compressed_pair_elemIPNS_4pairImmEELi0ELb0EE5__getB8ue170006Ev, symObjAddr: 0x1396C, symBinAddr: 0x100017950, symSize: 0x14 }
  - { offsetInCU: 0x1ED52, offset: 0x1ED52, size: 0x8, addend: 0x0, symName: __ZNSt3__16vectorINS_4pairImmEENS_9allocatorIS2_EEE21_ConstructTransactionC1B8ue170006ERS5_m, symObjAddr: 0x13980, symBinAddr: 0x100017964, symSize: 0x3C }
  - { offsetInCU: 0x1ED9A, offset: 0x1ED9A, size: 0x8, addend: 0x0, symName: __ZNSt3__116allocator_traitsINS_9allocatorINS_4pairImmEEEEE9constructB8ue170006IS3_JRKS3_EvEEvRS4_PT_DpOT0_, symObjAddr: 0x139BC, symBinAddr: 0x1000179A0, symSize: 0x34 }
  - { offsetInCU: 0x1EDF1, offset: 0x1EDF1, size: 0x8, addend: 0x0, symName: __ZNSt3__16vectorINS_4pairImmEENS_9allocatorIS2_EEE21_ConstructTransactionD1B8ue170006Ev, symObjAddr: 0x139F0, symBinAddr: 0x1000179D4, symSize: 0x2C }
  - { offsetInCU: 0x1EE1B, offset: 0x1EE1B, size: 0x8, addend: 0x0, symName: __ZNSt3__16vectorINS_4pairImmEENS_9allocatorIS2_EEE21_ConstructTransactionC2B8ue170006ERS5_m, symObjAddr: 0x13A1C, symBinAddr: 0x100017A00, symSize: 0x44 }
  - { offsetInCU: 0x1EE63, offset: 0x1EE63, size: 0x8, addend: 0x0, symName: __ZNSt3__19allocatorINS_4pairImmEEE9constructB8ue170006IS2_JRKS2_EEEvPT_DpOT0_, symObjAddr: 0x13A60, symBinAddr: 0x100017A44, symSize: 0x28 }
  - { offsetInCU: 0x1EEB9, offset: 0x1EEB9, size: 0x8, addend: 0x0, symName: __ZNSt3__16vectorINS_4pairImmEENS_9allocatorIS2_EEE21_ConstructTransactionD2B8ue170006Ev, symObjAddr: 0x13A88, symBinAddr: 0x100017A6C, symSize: 0x20 }
  - { offsetInCU: 0x1EEE3, offset: 0x1EEE3, size: 0x8, addend: 0x0, symName: __ZNKSt3__16vectorINS_4pairImmEENS_9allocatorIS2_EEE11__recommendB8ue170006Em, symObjAddr: 0x13AA8, symBinAddr: 0x100017A8C, symSize: 0xB4 }
  - { offsetInCU: 0x1EF38, offset: 0x1EF38, size: 0x8, addend: 0x0, symName: __ZNSt3__114__split_bufferINS_4pairImmEERNS_9allocatorIS2_EEEC1EmmS5_, symObjAddr: 0x13B5C, symBinAddr: 0x100017B40, symSize: 0x44 }
  - { offsetInCU: 0x1EF8E, offset: 0x1EF8E, size: 0x8, addend: 0x0, symName: __ZNSt3__114__split_bufferINS_4pairImmEERNS_9allocatorIS2_EEED1Ev, symObjAddr: 0x13CB0, symBinAddr: 0x100017C94, symSize: 0x2C }
  - { offsetInCU: 0x1EFBA, offset: 0x1EFBA, size: 0x8, addend: 0x0, symName: __ZNKSt3__16vectorINS_4pairImmEENS_9allocatorIS2_EEE8max_sizeEv, symObjAddr: 0x13CDC, symBinAddr: 0x100017CC0, symSize: 0x74 }
  - { offsetInCU: 0x1EFE2, offset: 0x1EFE2, size: 0x8, addend: 0x0, symName: __ZNKSt3__16vectorINS_4pairImmEENS_9allocatorIS2_EEE20__throw_length_errorB8ue170006Ev, symObjAddr: 0x13D50, symBinAddr: 0x100017D34, symSize: 0x1C }
  - { offsetInCU: 0x1F012, offset: 0x1F012, size: 0x8, addend: 0x0, symName: __ZNSt3__116allocator_traitsINS_9allocatorINS_4pairImmEEEEE8max_sizeB8ue170006IS4_vEEmRKS4_, symObjAddr: 0x13D6C, symBinAddr: 0x100017D50, symSize: 0x24 }
  - { offsetInCU: 0x1F040, offset: 0x1F040, size: 0x8, addend: 0x0, symName: __ZNKSt3__16vectorINS_4pairImmEENS_9allocatorIS2_EEE7__allocB8ue170006Ev, symObjAddr: 0x13D90, symBinAddr: 0x100017D74, symSize: 0x28 }
  - { offsetInCU: 0x1F066, offset: 0x1F066, size: 0x8, addend: 0x0, symName: __ZNKSt3__19allocatorINS_4pairImmEEE8max_sizeB8ue170006Ev, symObjAddr: 0x13DB8, symBinAddr: 0x100017D9C, symSize: 0x14 }
  - { offsetInCU: 0x1F08C, offset: 0x1F08C, size: 0x8, addend: 0x0, symName: __ZNKSt3__117__compressed_pairIPNS_4pairImmEENS_9allocatorIS2_EEE6secondB8ue170006Ev, symObjAddr: 0x13DCC, symBinAddr: 0x100017DB0, symSize: 0x24 }
  - { offsetInCU: 0x1F0B2, offset: 0x1F0B2, size: 0x8, addend: 0x0, symName: __ZNKSt3__122__compressed_pair_elemINS_9allocatorINS_4pairImmEEEELi1ELb1EE5__getB8ue170006Ev, symObjAddr: 0x13DF0, symBinAddr: 0x100017DD4, symSize: 0x14 }
  - { offsetInCU: 0x1F0D8, offset: 0x1F0D8, size: 0x8, addend: 0x0, symName: __ZNSt3__114__split_bufferINS_4pairImmEERNS_9allocatorIS2_EEEC2EmmS5_, symObjAddr: 0x13E04, symBinAddr: 0x100017DE8, symSize: 0xD4 }
  - { offsetInCU: 0x1F14B, offset: 0x1F14B, size: 0x8, addend: 0x0, symName: __ZNSt3__117__compressed_pairIPNS_4pairImmEERNS_9allocatorIS2_EEEC1B8ue170006IDnS6_EEOT_OT0_, symObjAddr: 0x13ED8, symBinAddr: 0x100017EBC, symSize: 0x3C }
  - { offsetInCU: 0x1F1A3, offset: 0x1F1A3, size: 0x8, addend: 0x0, symName: __ZNSt3__114__split_bufferINS_4pairImmEERNS_9allocatorIS2_EEE7__allocB8ue170006Ev, symObjAddr: 0x13F54, symBinAddr: 0x100017F38, symSize: 0x28 }
  - { offsetInCU: 0x1F1C9, offset: 0x1F1C9, size: 0x8, addend: 0x0, symName: __ZNSt3__114__split_bufferINS_4pairImmEERNS_9allocatorIS2_EEE9__end_capB8ue170006Ev, symObjAddr: 0x13F7C, symBinAddr: 0x100017F60, symSize: 0x28 }
  - { offsetInCU: 0x1F1EF, offset: 0x1F1EF, size: 0x8, addend: 0x0, symName: __ZNSt3__117__compressed_pairIPNS_4pairImmEERNS_9allocatorIS2_EEEC2B8ue170006IDnS6_EEOT_OT0_, symObjAddr: 0x13FA4, symBinAddr: 0x100017F88, symSize: 0x48 }
  - { offsetInCU: 0x1F247, offset: 0x1F247, size: 0x8, addend: 0x0, symName: __ZNSt3__122__compressed_pair_elemIRNS_9allocatorINS_4pairImmEEEELi1ELb0EEC2B8ue170006IS5_vEEOT_, symObjAddr: 0x13FEC, symBinAddr: 0x100017FD0, symSize: 0x20 }
  - { offsetInCU: 0x1F289, offset: 0x1F289, size: 0x8, addend: 0x0, symName: __ZNSt3__19allocatorINS_4pairImmEEE8allocateB8ue170006Em, symObjAddr: 0x1400C, symBinAddr: 0x100017FF0, symSize: 0x84 }
  - { offsetInCU: 0x1F2BD, offset: 0x1F2BD, size: 0x8, addend: 0x0, symName: __ZNSt3__117__compressed_pairIPNS_4pairImmEERNS_9allocatorIS2_EEE6secondB8ue170006Ev, symObjAddr: 0x14090, symBinAddr: 0x100018074, symSize: 0x28 }
  - { offsetInCU: 0x1F2E3, offset: 0x1F2E3, size: 0x8, addend: 0x0, symName: __ZNSt3__122__compressed_pair_elemIRNS_9allocatorINS_4pairImmEEEELi1ELb0EE5__getB8ue170006Ev, symObjAddr: 0x140B8, symBinAddr: 0x10001809C, symSize: 0x18 }
  - { offsetInCU: 0x1F309, offset: 0x1F309, size: 0x8, addend: 0x0, symName: __ZNSt3__117__compressed_pairIPNS_4pairImmEERNS_9allocatorIS2_EEE5firstB8ue170006Ev, symObjAddr: 0x140D0, symBinAddr: 0x1000180B4, symSize: 0x24 }
  - { offsetInCU: 0x1F32F, offset: 0x1F32F, size: 0x8, addend: 0x0, symName: __ZNSt3__116reverse_iteratorIPNS_4pairImmEEEC1B8ue170006ES3_, symObjAddr: 0x14228, symBinAddr: 0x10001820C, symSize: 0x34 }
  - { offsetInCU: 0x1F367, offset: 0x1F367, size: 0x8, addend: 0x0, symName: __ZNKSt3__116reverse_iteratorIPNS_4pairImmEEE4baseB8ue170006Ev, symObjAddr: 0x1425C, symBinAddr: 0x100018240, symSize: 0x18 }
  - { offsetInCU: 0x1F38D, offset: 0x1F38D, size: 0x8, addend: 0x0, symName: __ZNKSt3__16vectorINS_4pairImmEENS_9allocatorIS2_EEE14__annotate_newB8ue170006Em, symObjAddr: 0x142B0, symBinAddr: 0x100018294, symSize: 0xAC }
  - { offsetInCU: 0x1F3C2, offset: 0x1F3C2, size: 0x8, addend: 0x0, symName: __ZNSt3__129_AllocatorDestroyRangeReverseINS_9allocatorINS_4pairImmEEEENS_16reverse_iteratorIPS3_EEEC1B8ue170006ERS4_RS7_SA_, symObjAddr: 0x143A8, symBinAddr: 0x10001838C, symSize: 0x44 }
  - { offsetInCU: 0x1F419, offset: 0x1F419, size: 0x8, addend: 0x0, symName: __ZNSt3__116allocator_traitsINS_9allocatorINS_4pairImmEEEEE9constructB8ue170006IS3_JS3_EvEEvRS4_PT_DpOT0_, symObjAddr: 0x14434, symBinAddr: 0x100018418, symSize: 0x34 }
  - { offsetInCU: 0x1F470, offset: 0x1F470, size: 0x8, addend: 0x0, symName: __ZNKSt3__116reverse_iteratorIPNS_4pairImmEEEdeB8ue170006Ev, symObjAddr: 0x1448C, symBinAddr: 0x100018470, symSize: 0x28 }
  - { offsetInCU: 0x1F4A4, offset: 0x1F4A4, size: 0x8, addend: 0x0, symName: __ZNSt3__116reverse_iteratorIPNS_4pairImmEEEppB8ue170006Ev, symObjAddr: 0x144B4, symBinAddr: 0x100018498, symSize: 0x20 }
  - { offsetInCU: 0x1F4CA, offset: 0x1F4CA, size: 0x8, addend: 0x0, symName: __ZNSt3__128__exception_guard_exceptionsINS_29_AllocatorDestroyRangeReverseINS_9allocatorINS_4pairImmEEEENS_16reverse_iteratorIPS4_EEEEE10__completeB8ue170006Ev, symObjAddr: 0x144D4, symBinAddr: 0x1000184B8, symSize: 0x1C }
  - { offsetInCU: 0x1F4F0, offset: 0x1F4F0, size: 0x8, addend: 0x0, symName: __ZNSt3__128__exception_guard_exceptionsINS_29_AllocatorDestroyRangeReverseINS_9allocatorINS_4pairImmEEEENS_16reverse_iteratorIPS4_EEEEED1B8ue170006Ev, symObjAddr: 0x144F0, symBinAddr: 0x1000184D4, symSize: 0x2C }
  - { offsetInCU: 0x1F51A, offset: 0x1F51A, size: 0x8, addend: 0x0, symName: __ZNSt3__128__exception_guard_exceptionsINS_29_AllocatorDestroyRangeReverseINS_9allocatorINS_4pairImmEEEENS_16reverse_iteratorIPS4_EEEEEC1B8ue170006ES9_, symObjAddr: 0x1451C, symBinAddr: 0x100018500, symSize: 0x34 }
  - { offsetInCU: 0x1F553, offset: 0x1F553, size: 0x8, addend: 0x0, symName: __ZNSt3__128__exception_guard_exceptionsINS_29_AllocatorDestroyRangeReverseINS_9allocatorINS_4pairImmEEEENS_16reverse_iteratorIPS4_EEEEEC2B8ue170006ES9_, symObjAddr: 0x14550, symBinAddr: 0x100018534, symSize: 0x30 }
  - { offsetInCU: 0x1F58C, offset: 0x1F58C, size: 0x8, addend: 0x0, symName: __ZNSt3__129_AllocatorDestroyRangeReverseINS_9allocatorINS_4pairImmEEEENS_16reverse_iteratorIPS3_EEEC2B8ue170006ERS4_RS7_SA_, symObjAddr: 0x14580, symBinAddr: 0x100018564, symSize: 0x38 }
  - { offsetInCU: 0x1F5E3, offset: 0x1F5E3, size: 0x8, addend: 0x0, symName: __ZNSt3__19allocatorINS_4pairImmEEE9constructB8ue170006IS2_JS2_EEEvPT_DpOT0_, symObjAddr: 0x145B8, symBinAddr: 0x10001859C, symSize: 0x28 }
  - { offsetInCU: 0x1F63E, offset: 0x1F63E, size: 0x8, addend: 0x0, symName: __ZNSt3__119__to_address_helperINS_16reverse_iteratorIPNS_4pairImmEEEEvE6__callB8ue170006ERKS5_, symObjAddr: 0x145E0, symBinAddr: 0x1000185C4, symSize: 0x4C }
  - { offsetInCU: 0x1F661, offset: 0x1F661, size: 0x8, addend: 0x0, symName: __ZNKSt3__116reverse_iteratorIPNS_4pairImmEEEptB8ue170006Ev, symObjAddr: 0x1462C, symBinAddr: 0x100018610, symSize: 0x24 }
  - { offsetInCU: 0x1F687, offset: 0x1F687, size: 0x8, addend: 0x0, symName: __ZNSt3__128__exception_guard_exceptionsINS_29_AllocatorDestroyRangeReverseINS_9allocatorINS_4pairImmEEEENS_16reverse_iteratorIPS4_EEEEED2B8ue170006Ev, symObjAddr: 0x14650, symBinAddr: 0x100018634, symSize: 0x48 }
  - { offsetInCU: 0x1F6B1, offset: 0x1F6B1, size: 0x8, addend: 0x0, symName: __ZNKSt3__129_AllocatorDestroyRangeReverseINS_9allocatorINS_4pairImmEEEENS_16reverse_iteratorIPS3_EEEclB8ue170006Ev, symObjAddr: 0x14698, symBinAddr: 0x10001867C, symSize: 0xB4 }
  - { offsetInCU: 0x1F6D8, offset: 0x1F6D8, size: 0x8, addend: 0x0, symName: __ZNSt3__116reverse_iteratorINS0_IPNS_4pairImmEEEEEC1B8ue170006ES4_, symObjAddr: 0x147BC, symBinAddr: 0x1000187A0, symSize: 0x3C }
  - { offsetInCU: 0x1F710, offset: 0x1F710, size: 0x8, addend: 0x0, symName: __ZNSt3__116reverse_iteratorINS0_IPNS_4pairImmEEEEEppB8ue170006Ev, symObjAddr: 0x1487C, symBinAddr: 0x100018860, symSize: 0x30 }
  - { offsetInCU: 0x1F736, offset: 0x1F736, size: 0x8, addend: 0x0, symName: __ZNKSt3__116reverse_iteratorINS0_IPNS_4pairImmEEEEE4baseB8ue170006Ev, symObjAddr: 0x148AC, symBinAddr: 0x100018890, symSize: 0x24 }
  - { offsetInCU: 0x1F761, offset: 0x1F761, size: 0x8, addend: 0x0, symName: __ZNSt3__119__to_address_helperINS_16reverse_iteratorINS1_IPNS_4pairImmEEEEEEvE6__callB8ue170006ERKS6_, symObjAddr: 0x148D0, symBinAddr: 0x1000188B4, symSize: 0x4C }
  - { offsetInCU: 0x1F784, offset: 0x1F784, size: 0x8, addend: 0x0, symName: __ZNKSt3__116reverse_iteratorINS0_IPNS_4pairImmEEEEEptB8ue170006Ev, symObjAddr: 0x1491C, symBinAddr: 0x100018900, symSize: 0x24 }
  - { offsetInCU: 0x1F7AA, offset: 0x1F7AA, size: 0x8, addend: 0x0, symName: __ZNKSt3__116reverse_iteratorINS0_IPNS_4pairImmEEEEEdeB8ue170006Ev, symObjAddr: 0x14940, symBinAddr: 0x100018924, symSize: 0x34 }
  - { offsetInCU: 0x1F7DE, offset: 0x1F7DE, size: 0x8, addend: 0x0, symName: __ZNSt3__116reverse_iteratorIPNS_4pairImmEEEmmB8ue170006Ev, symObjAddr: 0x14974, symBinAddr: 0x100018958, symSize: 0x20 }
  - { offsetInCU: 0x1F804, offset: 0x1F804, size: 0x8, addend: 0x0, symName: __ZNSt3__116reverse_iteratorINS0_IPNS_4pairImmEEEEEC2B8ue170006ES4_, symObjAddr: 0x14994, symBinAddr: 0x100018978, symSize: 0x2C }
  - { offsetInCU: 0x1F83C, offset: 0x1F83C, size: 0x8, addend: 0x0, symName: __ZNSt3__116reverse_iteratorIPNS_4pairImmEEEC2B8ue170006ES3_, symObjAddr: 0x149C0, symBinAddr: 0x1000189A4, symSize: 0x28 }
  - { offsetInCU: 0x1F874, offset: 0x1F874, size: 0x8, addend: 0x0, symName: __ZNSt3__114__split_bufferINS_4pairImmEERNS_9allocatorIS2_EEED2Ev, symObjAddr: 0x149E8, symBinAddr: 0x1000189CC, symSize: 0x80 }
  - { offsetInCU: 0x1F8A0, offset: 0x1F8A0, size: 0x8, addend: 0x0, symName: __ZNSt3__114__split_bufferINS_4pairImmEERNS_9allocatorIS2_EEE5clearB8ue170006Ev, symObjAddr: 0x14A68, symBinAddr: 0x100018A4C, symSize: 0x28 }
  - { offsetInCU: 0x1F8C6, offset: 0x1F8C6, size: 0x8, addend: 0x0, symName: __ZNKSt3__114__split_bufferINS_4pairImmEERNS_9allocatorIS2_EEE8capacityB8ue170006Ev, symObjAddr: 0x14A90, symBinAddr: 0x100018A74, symSize: 0x40 }
  - { offsetInCU: 0x1F8EC, offset: 0x1F8EC, size: 0x8, addend: 0x0, symName: __ZNSt3__114__split_bufferINS_4pairImmEERNS_9allocatorIS2_EEE17__destruct_at_endB8ue170006EPS2_, symObjAddr: 0x14AD0, symBinAddr: 0x100018AB4, symSize: 0x2C }
  - { offsetInCU: 0x1F920, offset: 0x1F920, size: 0x8, addend: 0x0, symName: __ZNSt3__114__split_bufferINS_4pairImmEERNS_9allocatorIS2_EEE17__destruct_at_endB8ue170006EPS2_NS_17integral_constantIbLb0EEE, symObjAddr: 0x14AFC, symBinAddr: 0x100018AE0, symSize: 0x94 }
  - { offsetInCU: 0x1F961, offset: 0x1F961, size: 0x8, addend: 0x0, symName: __ZNKSt3__114__split_bufferINS_4pairImmEERNS_9allocatorIS2_EEE9__end_capB8ue170006Ev, symObjAddr: 0x14B90, symBinAddr: 0x100018B74, symSize: 0x28 }
  - { offsetInCU: 0x1F987, offset: 0x1F987, size: 0x8, addend: 0x0, symName: __ZNKSt3__117__compressed_pairIPNS_4pairImmEERNS_9allocatorIS2_EEE5firstB8ue170006Ev, symObjAddr: 0x14BB8, symBinAddr: 0x100018B9C, symSize: 0x24 }
  - { offsetInCU: 0x1F9AD, offset: 0x1F9AD, size: 0x8, addend: 0x0, symName: __ZNSt3__112basic_stringIcNS_11char_traitsIcEENS_9allocatorIcEEEC2B8ue170006Ev, symObjAddr: 0x14BDC, symBinAddr: 0x100018BC0, symSize: 0x3C }
  - { offsetInCU: 0x1F9D7, offset: 0x1F9D7, size: 0x8, addend: 0x0, symName: __ZNSt3__112basic_stringIcNS_11char_traitsIcEENS_9allocatorIcEEE14__default_initB8ue170006Ev, symObjAddr: 0x14C18, symBinAddr: 0x100018BFC, symSize: 0xB0 }
  - { offsetInCU: 0x1FA29, offset: 0x1FA29, size: 0x8, addend: 0x0, symName: __ZNSt3__117__compressed_pairINS_12basic_stringIcNS_11char_traitsIcEENS_9allocatorIcEEE5__repES5_E5firstB8ue170006Ev, symObjAddr: 0x14CC8, symBinAddr: 0x100018CAC, symSize: 0x24 }
  - { offsetInCU: 0x1FA4F, offset: 0x1FA4F, size: 0x8, addend: 0x0, symName: __ZNSt3__112basic_stringIcNS_11char_traitsIcEENS_9allocatorIcEEE11__recommendB8ue170006Em, symObjAddr: 0x14CEC, symBinAddr: 0x100018CD0, symSize: 0x9C }
  - { offsetInCU: 0x1FA82, offset: 0x1FA82, size: 0x8, addend: 0x0, symName: __ZNSt3__116allocator_traitsINS_9allocatorIcEEE8allocateB8ue170006ERS2_m, symObjAddr: 0x14D88, symBinAddr: 0x100018D6C, symSize: 0x2C }
  - { offsetInCU: 0x1FAB5, offset: 0x1FAB5, size: 0x8, addend: 0x0, symName: __ZNSt3__112basic_stringIcNS_11char_traitsIcEENS_9allocatorIcEEE7__allocB8ue170006Ev, symObjAddr: 0x14DB4, symBinAddr: 0x100018D98, symSize: 0x24 }
  - { offsetInCU: 0x1FADB, offset: 0x1FADB, size: 0x8, addend: 0x0, symName: __ZNSt3__112basic_stringIcNS_11char_traitsIcEENS_9allocatorIcEEE16__begin_lifetimeB8ue170006EPcm, symObjAddr: 0x14DD8, symBinAddr: 0x100018DBC, symSize: 0x14 }
  - { offsetInCU: 0x1FB0E, offset: 0x1FB0E, size: 0x8, addend: 0x0, symName: __ZNSt3__112basic_stringIcNS_11char_traitsIcEENS_9allocatorIcEEE18__set_long_pointerB8ue170006EPc, symObjAddr: 0x14DEC, symBinAddr: 0x100018DD0, symSize: 0x38 }
  - { offsetInCU: 0x1FB43, offset: 0x1FB43, size: 0x8, addend: 0x0, symName: __ZNSt3__112basic_stringIcNS_11char_traitsIcEENS_9allocatorIcEEE14__set_long_capB8ue170006Em, symObjAddr: 0x14E24, symBinAddr: 0x100018E08, symSize: 0x70 }
  - { offsetInCU: 0x1FB78, offset: 0x1FB78, size: 0x8, addend: 0x0, symName: __ZNSt3__112basic_stringIcNS_11char_traitsIcEENS_9allocatorIcEEE15__set_long_sizeB8ue170006Em, symObjAddr: 0x14E94, symBinAddr: 0x100018E78, symSize: 0x38 }
  - { offsetInCU: 0x1FBAD, offset: 0x1FBAD, size: 0x8, addend: 0x0, symName: __ZNSt3__122__compressed_pair_elemINS_12basic_stringIcNS_11char_traitsIcEENS_9allocatorIcEEE5__repELi0ELb0EE5__getB8ue170006Ev, symObjAddr: 0x14ECC, symBinAddr: 0x100018EB0, symSize: 0x14 }
  - { offsetInCU: 0x1FBD3, offset: 0x1FBD3, size: 0x8, addend: 0x0, symName: __ZNSt3__112basic_stringIcNS_11char_traitsIcEENS_9allocatorIcEEE10__align_itB8ue170006ILm16EEEmm, symObjAddr: 0x14EE0, symBinAddr: 0x100018EC4, symSize: 0x1C }
  - { offsetInCU: 0x1FC01, offset: 0x1FC01, size: 0x8, addend: 0x0, symName: __ZNSt3__19allocatorIcE8allocateB8ue170006Em, symObjAddr: 0x14EFC, symBinAddr: 0x100018EE0, symSize: 0x84 }
  - { offsetInCU: 0x1FC3F, offset: 0x1FC3F, size: 0x8, addend: 0x0, symName: __ZNSt3__116allocator_traitsINS_9allocatorIcEEE8max_sizeB8ue170006IS2_vEEmRKS2_, symObjAddr: 0x14F80, symBinAddr: 0x100018F64, symSize: 0x24 }
  - { offsetInCU: 0x1FC6D, offset: 0x1FC6D, size: 0x8, addend: 0x0, symName: __ZNKSt3__19allocatorIcE8max_sizeB8ue170006Ev, symObjAddr: 0x14FA4, symBinAddr: 0x100018F88, symSize: 0x14 }
  - { offsetInCU: 0x1FC93, offset: 0x1FC93, size: 0x8, addend: 0x0, symName: __ZNSt3__117__compressed_pairINS_12basic_stringIcNS_11char_traitsIcEENS_9allocatorIcEEE5__repES5_E6secondB8ue170006Ev, symObjAddr: 0x14FB8, symBinAddr: 0x100018F9C, symSize: 0x24 }
  - { offsetInCU: 0x1FCB9, offset: 0x1FCB9, size: 0x8, addend: 0x0, symName: __ZNSt3__122__compressed_pair_elemINS_9allocatorIcEELi1ELb1EE5__getB8ue170006Ev, symObjAddr: 0x14FDC, symBinAddr: 0x100018FC0, symSize: 0x14 }
  - { offsetInCU: 0x1FCDF, offset: 0x1FCDF, size: 0x8, addend: 0x0, symName: __ZNKSt3__112basic_stringIcNS_11char_traitsIcEENS_9allocatorIcEEE4sizeB8ue170006Ev, symObjAddr: 0x14FF0, symBinAddr: 0x100018FD4, symSize: 0x54 }
  - { offsetInCU: 0x1FD05, offset: 0x1FD05, size: 0x8, addend: 0x0, symName: __ZNKSt3__112basic_stringIcNS_11char_traitsIcEENS_9allocatorIcEEE15__get_long_sizeB8ue170006Ev, symObjAddr: 0x15044, symBinAddr: 0x100019028, symSize: 0x28 }
  - { offsetInCU: 0x1FD2B, offset: 0x1FD2B, size: 0x8, addend: 0x0, symName: __ZNKSt3__112basic_stringIcNS_11char_traitsIcEENS_9allocatorIcEEE16__get_short_sizeB8ue170006Ev, symObjAddr: 0x1506C, symBinAddr: 0x100019050, symSize: 0x34 }
  - { offsetInCU: 0x1FD5B, offset: 0x1FD5B, size: 0x8, addend: 0x0, symName: __ZNKSt3__110__equal_toclB8ue170006ImmEEbRKT_RKT0_, symObjAddr: 0x15348, symBinAddr: 0x10001932C, symSize: 0x34 }
  - { offsetInCU: 0x1FDAF, offset: 0x1FDAF, size: 0x8, addend: 0x0, symName: __ZNSt3__18_IterOpsINS_17_ClassicAlgPolicyEE11__iter_moveB8ue170006IRNS_11__wrap_iterIPmEEEENS_9enable_ifIXsr12is_referenceIDTdeclsr3stdE7declvalIRT_EEEEE5valueEDTclsr3stdE4movedeclsr3stdE7declvalISA_EEEEE4typeEOS9_, symObjAddr: 0x1537C, symBinAddr: 0x100019360, symSize: 0x28 }
  - { offsetInCU: 0x1FDF5, offset: 0x1FDF5, size: 0x8, addend: 0x0, symName: __ZNSt3__14pairINS_11__wrap_iterIPmEES3_EC1B8ue170006ERKS3_S6_, symObjAddr: 0x153A4, symBinAddr: 0x100019388, symSize: 0x3C }
  - { offsetInCU: 0x1FE3B, offset: 0x1FE3B, size: 0x8, addend: 0x0, symName: __ZNSt3__18_IterOpsINS_17_ClassicAlgPolicyEE25__validate_iter_referenceB8ue170006IRNS_11__wrap_iterIPmEEEEvv, symObjAddr: 0x153E0, symBinAddr: 0x1000193C4, symSize: 0x4 }
  - { offsetInCU: 0x1FE59, offset: 0x1FE59, size: 0x8, addend: 0x0, symName: __ZNSt3__14pairINS_11__wrap_iterIPmEES3_EC2B8ue170006ERKS3_S6_, symObjAddr: 0x153E4, symBinAddr: 0x1000193C8, symSize: 0x34 }
  - { offsetInCU: 0x52, offset: 0x201A9, size: 0x8, addend: 0x0, symName: __ZL8ONE_BITS, symObjAddr: 0x1A54, symBinAddr: 0x10001B497, symSize: 0x0 }
  - { offsetInCU: 0x2A41, offset: 0x22B98, size: 0x8, addend: 0x0, symName: __Z4onesy, symObjAddr: 0x0, symBinAddr: 0x1000194C0, symSize: 0xB4 }
  - { offsetInCU: 0x2A6D, offset: 0x22BC4, size: 0x8, addend: 0x0, symName: __ZNK9BitVector3getEm, symObjAddr: 0xB4, symBinAddr: 0x100019574, symSize: 0x60 }
  - { offsetInCU: 0x2ABF, offset: 0x22C16, size: 0x8, addend: 0x0, symName: __ZN9BitVector3setEmb, symObjAddr: 0x114, symBinAddr: 0x1000195D4, symSize: 0x134 }
  - { offsetInCU: 0x2B2D, offset: 0x22C84, size: 0x8, addend: 0x0, symName: __ZN9BitVector5rank1Em, symObjAddr: 0x248, symBinAddr: 0x100019708, symSize: 0x84 }
  - { offsetInCU: 0x2B7F, offset: 0x22CD6, size: 0x8, addend: 0x0, symName: __ZN9BitVector11countBlocksEmm, symObjAddr: 0x2CC, symBinAddr: 0x10001978C, symSize: 0x80 }
  - { offsetInCU: 0x2BF2, offset: 0x22D49, size: 0x8, addend: 0x0, symName: __ZN9BitVector12countOnesRawEmm, symObjAddr: 0x34C, symBinAddr: 0x10001980C, symSize: 0x98 }
  - { offsetInCU: 0x2C55, offset: 0x22DAC, size: 0x8, addend: 0x0, symName: __ZN9BitVector10rangeRank1Emm, symObjAddr: 0x3E4, symBinAddr: 0x1000198A4, symSize: 0xF4 }
  - { offsetInCU: 0x2CD1, offset: 0x22E28, size: 0x8, addend: 0x0, symName: __ZN9BitVector6insertEmm, symObjAddr: 0x4D8, symBinAddr: 0x100019998, symSize: 0x240 }
  - { offsetInCU: 0x2D93, offset: 0x22EEA, size: 0x8, addend: 0x0, symName: __ZN9BitVector9recomputeEm, symObjAddr: 0x718, symBinAddr: 0x100019BD8, symSize: 0x94 }
  - { offsetInCU: 0x2DE8, offset: 0x22F3F, size: 0x8, addend: 0x0, symName: __ZN9BitVector6insertEmRKS_mm, symObjAddr: 0x7AC, symBinAddr: 0x100019C6C, symSize: 0xC8 }
  - { offsetInCU: 0x2E64, offset: 0x22FBB, size: 0x8, addend: 0x0, symName: __ZN9BitVector6appendERKS_mm, symObjAddr: 0x874, symBinAddr: 0x100019D34, symSize: 0x40 }
  - { offsetInCU: 0x2EB6, offset: 0x2300D, size: 0x8, addend: 0x0, symName: __ZN9BitVector5eraseEmm, symObjAddr: 0x8B4, symBinAddr: 0x100019D74, symSize: 0x258 }
  - { offsetInCU: 0x2F86, offset: 0x230DD, size: 0x8, addend: 0x0, symName: __ZN9BitVector4sizeEv, symObjAddr: 0xB0C, symBinAddr: 0x100019FCC, symSize: 0x18 }
  - { offsetInCU: 0x2FAE, offset: 0x23105, size: 0x8, addend: 0x0, symName: __ZN9BitVectorC2Ev, symObjAddr: 0xB24, symBinAddr: 0x100019FE4, symSize: 0x14 }
  - { offsetInCU: 0x2FDB, offset: 0x23132, size: 0x8, addend: 0x0, symName: __ZN9BitVectorC1Ev, symObjAddr: 0xB38, symBinAddr: 0x100019FF8, symSize: 0x2C }
  - { offsetInCU: 0x3008, offset: 0x2315F, size: 0x8, addend: 0x0, symName: __ZN9BitVectorC2Em, symObjAddr: 0xB64, symBinAddr: 0x10001A024, symSize: 0x84 }
  - { offsetInCU: 0x3061, offset: 0x231B8, size: 0x8, addend: 0x0, symName: __ZN9BitVectorC1Em, symObjAddr: 0xBE8, symBinAddr: 0x10001A0A8, symSize: 0x34 }
  - { offsetInCU: 0x309D, offset: 0x231F4, size: 0x8, addend: 0x0, symName: __ZN9BitVectorC2ERKS_mm, symObjAddr: 0xC1C, symBinAddr: 0x10001A0DC, symSize: 0x130 }
  - { offsetInCU: 0x3131, offset: 0x23288, size: 0x8, addend: 0x0, symName: __ZN9BitVectorC1ERKS_mm, symObjAddr: 0xD4C, symBinAddr: 0x10001A20C, symSize: 0x44 }
  - { offsetInCU: 0x318B, offset: 0x232E2, size: 0x8, addend: 0x0, symName: __ZN9BitVector11memoryUsageEv, symObjAddr: 0xD90, symBinAddr: 0x10001A250, symSize: 0x2C }
  - { offsetInCU: 0x31B4, offset: 0x2330B, size: 0x8, addend: 0x0, symName: __ZN9BitVector5helloEv, symObjAddr: 0xDBC, symBinAddr: 0x10001A27C, symSize: 0x30 }
...
